
LPC1768/avionics.elf:     file format elf32-littlearm
architecture: arm, flags 0x00000112:
EXEC_P, HAS_SYMS, D_PAGED
start address 0x00001e39


Disassembly of section .text:

00000000 <__isr_vector>:
       0:	10008000 	.word	0x10008000
       4:	00001e39 	.word	0x00001e39
       8:	00001e69 	.word	0x00001e69
       c:	00001e6b 	.word	0x00001e6b
      10:	00001e6d 	.word	0x00001e6d
      14:	00001e6f 	.word	0x00001e6f
      18:	00001e71 	.word	0x00001e71
	...
      2c:	00001e73 	.word	0x00001e73
      30:	00001e75 	.word	0x00001e75
      34:	00000000 	.word	0x00000000
      38:	00001e77 	.word	0x00001e77
      3c:	00001e79 	.word	0x00001e79
      40:	00001e7b 	.word	0x00001e7b
      44:	00001e7b 	.word	0x00001e7b
      48:	00001e7b 	.word	0x00001e7b
      4c:	00001e7b 	.word	0x00001e7b
      50:	00001e7b 	.word	0x00001e7b
      54:	00001e7b 	.word	0x00001e7b
      58:	00001e7b 	.word	0x00001e7b
      5c:	00001e7b 	.word	0x00001e7b
      60:	00001e7b 	.word	0x00001e7b
      64:	00001e7b 	.word	0x00001e7b
      68:	00001e7b 	.word	0x00001e7b
      6c:	00001e7b 	.word	0x00001e7b
      70:	00001e7b 	.word	0x00001e7b
      74:	00001e7b 	.word	0x00001e7b
      78:	00001e7b 	.word	0x00001e7b
      7c:	00001e7b 	.word	0x00001e7b
      80:	00001e7b 	.word	0x00001e7b
      84:	00001e7b 	.word	0x00001e7b
      88:	00001e7b 	.word	0x00001e7b
      8c:	00001e7b 	.word	0x00001e7b
      90:	00001e7b 	.word	0x00001e7b
      94:	00001e7b 	.word	0x00001e7b
      98:	00001e7b 	.word	0x00001e7b
      9c:	00001e7b 	.word	0x00001e7b
      a0:	00001e7b 	.word	0x00001e7b
      a4:	00001e7b 	.word	0x00001e7b
      a8:	00001e7b 	.word	0x00001e7b
      ac:	00001e7b 	.word	0x00001e7b
      b0:	00001e7b 	.word	0x00001e7b
      b4:	00001e7b 	.word	0x00001e7b
      b8:	00001e7b 	.word	0x00001e7b
      bc:	00001e7b 	.word	0x00001e7b
      c0:	00001e7b 	.word	0x00001e7b
      c4:	00001e7b 	.word	0x00001e7b
      c8:	00001e7b 	.word	0x00001e7b

000000cc <deregister_tm_clones>:
      cc:	4b04      	ldr	r3, [pc, #16]	; (e0 <deregister_tm_clones+0x14>)
      ce:	4805      	ldr	r0, [pc, #20]	; (e4 <deregister_tm_clones+0x18>)
      d0:	1a1b      	subs	r3, r3, r0
      d2:	2b06      	cmp	r3, #6
      d4:	d902      	bls.n	dc <deregister_tm_clones+0x10>
      d6:	4b04      	ldr	r3, [pc, #16]	; (e8 <deregister_tm_clones+0x1c>)
      d8:	b103      	cbz	r3, dc <deregister_tm_clones+0x10>
      da:	4718      	bx	r3
      dc:	4770      	bx	lr
      de:	bf00      	nop
      e0:	1000014b 	.word	0x1000014b
      e4:	10000148 	.word	0x10000148
      e8:	00000000 	.word	0x00000000

000000ec <register_tm_clones>:
      ec:	4905      	ldr	r1, [pc, #20]	; (104 <register_tm_clones+0x18>)
      ee:	4806      	ldr	r0, [pc, #24]	; (108 <register_tm_clones+0x1c>)
      f0:	1a09      	subs	r1, r1, r0
      f2:	1089      	asrs	r1, r1, #2
      f4:	eb01 71d1 	add.w	r1, r1, r1, lsr #31
      f8:	1049      	asrs	r1, r1, #1
      fa:	d002      	beq.n	102 <register_tm_clones+0x16>
      fc:	4b03      	ldr	r3, [pc, #12]	; (10c <register_tm_clones+0x20>)
      fe:	b103      	cbz	r3, 102 <register_tm_clones+0x16>
     100:	4718      	bx	r3
     102:	4770      	bx	lr
     104:	10000148 	.word	0x10000148
     108:	10000148 	.word	0x10000148
     10c:	00000000 	.word	0x00000000

00000110 <__do_global_dtors_aux>:
     110:	b510      	push	{r4, lr}
     112:	4c06      	ldr	r4, [pc, #24]	; (12c <__do_global_dtors_aux+0x1c>)
     114:	7823      	ldrb	r3, [r4, #0]
     116:	b943      	cbnz	r3, 12a <__do_global_dtors_aux+0x1a>
     118:	f7ff ffd8 	bl	cc <deregister_tm_clones>
     11c:	4b04      	ldr	r3, [pc, #16]	; (130 <__do_global_dtors_aux+0x20>)
     11e:	b113      	cbz	r3, 126 <__do_global_dtors_aux+0x16>
     120:	4804      	ldr	r0, [pc, #16]	; (134 <__do_global_dtors_aux+0x24>)
     122:	f3af 8000 	nop.w
     126:	2301      	movs	r3, #1
     128:	7023      	strb	r3, [r4, #0]
     12a:	bd10      	pop	{r4, pc}
     12c:	10000148 	.word	0x10000148
     130:	00000000 	.word	0x00000000
     134:	00005054 	.word	0x00005054

00000138 <frame_dummy>:
     138:	b508      	push	{r3, lr}
     13a:	4b08      	ldr	r3, [pc, #32]	; (15c <frame_dummy+0x24>)
     13c:	b11b      	cbz	r3, 146 <frame_dummy+0xe>
     13e:	4908      	ldr	r1, [pc, #32]	; (160 <frame_dummy+0x28>)
     140:	4808      	ldr	r0, [pc, #32]	; (164 <frame_dummy+0x2c>)
     142:	f3af 8000 	nop.w
     146:	4808      	ldr	r0, [pc, #32]	; (168 <frame_dummy+0x30>)
     148:	6803      	ldr	r3, [r0, #0]
     14a:	b913      	cbnz	r3, 152 <frame_dummy+0x1a>
     14c:	e8bd 4008 	ldmia.w	sp!, {r3, lr}
     150:	e7cc      	b.n	ec <register_tm_clones>
     152:	4b06      	ldr	r3, [pc, #24]	; (16c <frame_dummy+0x34>)
     154:	2b00      	cmp	r3, #0
     156:	d0f9      	beq.n	14c <frame_dummy+0x14>
     158:	4798      	blx	r3
     15a:	e7f7      	b.n	14c <frame_dummy+0x14>
     15c:	00000000 	.word	0x00000000
     160:	1000014c 	.word	0x1000014c
     164:	00005054 	.word	0x00005054
     168:	10000148 	.word	0x10000148
     16c:	00000000 	.word	0x00000000

00000170 <mbed::SerialBase::~SerialBase()>:
     170:	4770      	bx	lr
     172:	bf00      	nop

00000174 <mbed::Serial::~Serial()>:
     174:	b510      	push	{r4, lr}
     176:	4604      	mov	r4, r0
     178:	4b06      	ldr	r3, [pc, #24]	; (194 <mbed::Serial::~Serial()+0x20>)
     17a:	3040      	adds	r0, #64	; 0x40
     17c:	f103 0118 	add.w	r1, r3, #24
     180:	f103 024c 	add.w	r2, r3, #76	; 0x4c
     184:	6023      	str	r3, [r4, #0]
     186:	6421      	str	r1, [r4, #64]	; 0x40
     188:	6462      	str	r2, [r4, #68]	; 0x44
     18a:	f001 fe2d 	bl	1de8 <mbed::Stream::~Stream()>
     18e:	4620      	mov	r0, r4
     190:	bd10      	pop	{r4, pc}
     192:	bf00      	nop
     194:	00004df4 	.word	0x00004df4

00000198 <non-virtual thunk to mbed::Serial::~Serial()>:
     198:	f1a0 0040 	sub.w	r0, r0, #64	; 0x40
     19c:	e7ea      	b.n	174 <mbed::Serial::~Serial()>
     19e:	bf00      	nop

000001a0 <non-virtual thunk to mbed::Serial::~Serial()>:
     1a0:	f1a0 0044 	sub.w	r0, r0, #68	; 0x44
     1a4:	e7e6      	b.n	174 <mbed::Serial::~Serial()>
     1a6:	bf00      	nop

000001a8 <mbed::SerialBase::~SerialBase()>:
     1a8:	b510      	push	{r4, lr}
     1aa:	4604      	mov	r4, r0
     1ac:	f001 fe6b 	bl	1e86 <operator delete(void*)>
     1b0:	4620      	mov	r0, r4
     1b2:	bd10      	pop	{r4, pc}

000001b4 <main>:
     1b4:	b500      	push	{lr}
     1b6:	4819      	ldr	r0, [pc, #100]	; (21c <main+0x68>)
     1b8:	b087      	sub	sp, #28
     1ba:	f000 f9ff 	bl	5bc <MPL115A2::begin()>
     1be:	4918      	ldr	r1, [pc, #96]	; (220 <main+0x6c>)
     1c0:	4818      	ldr	r0, [pc, #96]	; (224 <main+0x70>)
     1c2:	f001 fe23 	bl	1e0c <mbed::Stream::printf(char const*, ...)>
     1c6:	4815      	ldr	r0, [pc, #84]	; (21c <main+0x68>)
     1c8:	f000 f904 	bl	3d4 <MPL115A2::ReadSensor()>
     1cc:	4813      	ldr	r0, [pc, #76]	; (21c <main+0x68>)
     1ce:	f000 f98f 	bl	4f0 <MPL115A2::GetPressure()>
     1d2:	f001 ffbf 	bl	2154 <__aeabi_f2d>
     1d6:	4602      	mov	r2, r0
     1d8:	460b      	mov	r3, r1
     1da:	4812      	ldr	r0, [pc, #72]	; (224 <main+0x70>)
     1dc:	4912      	ldr	r1, [pc, #72]	; (228 <main+0x74>)
     1de:	f001 fe15 	bl	1e0c <mbed::Stream::printf(char const*, ...)>
     1e2:	480e      	ldr	r0, [pc, #56]	; (21c <main+0x68>)
     1e4:	f000 f9c8 	bl	578 <MPL115A2::GetTemperature()>
     1e8:	f001 ffb4 	bl	2154 <__aeabi_f2d>
     1ec:	4602      	mov	r2, r0
     1ee:	460b      	mov	r3, r1
     1f0:	480c      	ldr	r0, [pc, #48]	; (224 <main+0x70>)
     1f2:	490e      	ldr	r1, [pc, #56]	; (22c <main+0x78>)
     1f4:	f001 fe0a 	bl	1e0c <mbed::Stream::printf(char const*, ...)>
     1f8:	f04f 507e 	mov.w	r0, #1065353216	; 0x3f800000
     1fc:	f000 fb9a 	bl	934 <wait>
     200:	a903      	add	r1, sp, #12
     202:	480b      	ldr	r0, [pc, #44]	; (230 <main+0x7c>)
     204:	f000 f8a6 	bl	354 <L3G4200D::read(int*)>
     208:	9905      	ldr	r1, [sp, #20]
     20a:	9b04      	ldr	r3, [sp, #16]
     20c:	9100      	str	r1, [sp, #0]
     20e:	9a03      	ldr	r2, [sp, #12]
     210:	4908      	ldr	r1, [pc, #32]	; (234 <main+0x80>)
     212:	4804      	ldr	r0, [pc, #16]	; (224 <main+0x70>)
     214:	f001 fdfa 	bl	1e0c <mbed::Stream::printf(char const*, ...)>
     218:	e7d5      	b.n	1c6 <main+0x12>
     21a:	bf00      	nop
     21c:	100001d8 	.word	0x100001d8
     220:	00004984 	.word	0x00004984
     224:	100001a4 	.word	0x100001a4
     228:	00004994 	.word	0x00004994
     22c:	000049a8 	.word	0x000049a8
     230:	100001bc 	.word	0x100001bc
     234:	000049bc 	.word	0x000049bc

00000238 <mbed::Serial::~Serial()>:
     238:	b510      	push	{r4, lr}
     23a:	4604      	mov	r4, r0
     23c:	4b07      	ldr	r3, [pc, #28]	; (25c <mbed::Serial::~Serial()+0x24>)
     23e:	3040      	adds	r0, #64	; 0x40
     240:	f103 0118 	add.w	r1, r3, #24
     244:	f103 024c 	add.w	r2, r3, #76	; 0x4c
     248:	6023      	str	r3, [r4, #0]
     24a:	6421      	str	r1, [r4, #64]	; 0x40
     24c:	6462      	str	r2, [r4, #68]	; 0x44
     24e:	f001 fdcb 	bl	1de8 <mbed::Stream::~Stream()>
     252:	4620      	mov	r0, r4
     254:	f001 fe17 	bl	1e86 <operator delete(void*)>
     258:	4620      	mov	r0, r4
     25a:	bd10      	pop	{r4, pc}
     25c:	00004df4 	.word	0x00004df4

00000260 <non-virtual thunk to mbed::Serial::~Serial()>:
     260:	f1a0 0040 	sub.w	r0, r0, #64	; 0x40
     264:	e7e8      	b.n	238 <mbed::Serial::~Serial()>
     266:	bf00      	nop

00000268 <non-virtual thunk to mbed::Serial::~Serial()>:
     268:	f1a0 0044 	sub.w	r0, r0, #68	; 0x44
     26c:	e7e4      	b.n	238 <mbed::Serial::~Serial()>
     26e:	bf00      	nop

00000270 <_GLOBAL__sub_I_led>:
     270:	4b15      	ldr	r3, [pc, #84]	; (2c8 <_GLOBAL__sub_I_led+0x58>)
     272:	b570      	push	{r4, r5, r6, lr}
     274:	4d15      	ldr	r5, [pc, #84]	; (2cc <_GLOBAL__sub_I_led+0x5c>)
     276:	2400      	movs	r4, #0
     278:	4618      	mov	r0, r3
     27a:	4915      	ldr	r1, [pc, #84]	; (2d0 <_GLOBAL__sub_I_led+0x60>)
     27c:	601c      	str	r4, [r3, #0]
     27e:	605c      	str	r4, [r3, #4]
     280:	609c      	str	r4, [r3, #8]
     282:	60dc      	str	r4, [r3, #12]
     284:	611c      	str	r4, [r3, #16]
     286:	615c      	str	r4, [r3, #20]
     288:	4e12      	ldr	r6, [pc, #72]	; (2d4 <_GLOBAL__sub_I_led+0x64>)
     28a:	f000 fa71 	bl	770 <gpio_init_out>
     28e:	4628      	mov	r0, r5
     290:	4a11      	ldr	r2, [pc, #68]	; (2d8 <_GLOBAL__sub_I_led+0x68>)
     292:	4912      	ldr	r1, [pc, #72]	; (2dc <_GLOBAL__sub_I_led+0x6c>)
     294:	f001 fb1e 	bl	18d4 <mbed::I2C::I2C(PinName, PinName)>
     298:	4a11      	ldr	r2, [pc, #68]	; (2e0 <_GLOBAL__sub_I_led+0x70>)
     29a:	4912      	ldr	r1, [pc, #72]	; (2e4 <_GLOBAL__sub_I_led+0x74>)
     29c:	4812      	ldr	r0, [pc, #72]	; (2e8 <_GLOBAL__sub_I_led+0x78>)
     29e:	f000 f831 	bl	304 <L3G4200D::L3G4200D(PinName, PinName)>
     2a2:	4623      	mov	r3, r4
     2a4:	4630      	mov	r0, r6
     2a6:	4a11      	ldr	r2, [pc, #68]	; (2ec <_GLOBAL__sub_I_led+0x7c>)
     2a8:	4911      	ldr	r1, [pc, #68]	; (2f0 <_GLOBAL__sub_I_led+0x80>)
     2aa:	f001 fd31 	bl	1d10 <mbed::Serial::Serial(PinName, PinName, char const*)>
     2ae:	4630      	mov	r0, r6
     2b0:	4a10      	ldr	r2, [pc, #64]	; (2f4 <_GLOBAL__sub_I_led+0x84>)
     2b2:	4911      	ldr	r1, [pc, #68]	; (2f8 <_GLOBAL__sub_I_led+0x88>)
     2b4:	f001 fde2 	bl	1e7c <__aeabi_atexit>
     2b8:	4629      	mov	r1, r5
     2ba:	e8bd 4070 	ldmia.w	sp!, {r4, r5, r6, lr}
     2be:	4a0f      	ldr	r2, [pc, #60]	; (2fc <_GLOBAL__sub_I_led+0x8c>)
     2c0:	480f      	ldr	r0, [pc, #60]	; (300 <_GLOBAL__sub_I_led+0x90>)
     2c2:	f000 b871 	b.w	3a8 <MPL115A2::MPL115A2(mbed::I2C*, PinName)>
     2c6:	bf00      	nop
     2c8:	10000210 	.word	0x10000210
     2cc:	10000228 	.word	0x10000228
     2d0:	2009c032 	.word	0x2009c032
     2d4:	10000164 	.word	0x10000164
     2d8:	2009c001 	.word	0x2009c001
     2dc:	2009c000 	.word	0x2009c000
     2e0:	2009c00b 	.word	0x2009c00b
     2e4:	2009c00a 	.word	0x2009c00a
     2e8:	100001bc 	.word	0x100001bc
     2ec:	2009c003 	.word	0x2009c003
     2f0:	2009c002 	.word	0x2009c002
     2f4:	100000c8 	.word	0x100000c8
     2f8:	00000175 	.word	0x00000175
     2fc:	2009c045 	.word	0x2009c045
     300:	100001d8 	.word	0x100001d8

00000304 <L3G4200D::L3G4200D(PinName, PinName)>:
     304:	b5f0      	push	{r4, r5, r6, r7, lr}
     306:	4604      	mov	r4, r0
     308:	f100 0514 	add.w	r5, r0, #20
     30c:	b083      	sub	sp, #12
     30e:	4628      	mov	r0, r5
     310:	f001 fae0 	bl	18d4 <mbed::I2C::I2C(PinName, PinName)>
     314:	4628      	mov	r0, r5
     316:	490e      	ldr	r1, [pc, #56]	; (350 <L3G4200D::L3G4200D(PinName, PinName)+0x4c>)
     318:	f001 faec 	bl	18f4 <mbed::I2C::frequency(int)>
     31c:	2720      	movs	r7, #32
     31e:	2600      	movs	r6, #0
     320:	230f      	movs	r3, #15
     322:	7063      	strb	r3, [r4, #1]
     324:	7027      	strb	r7, [r4, #0]
     326:	4622      	mov	r2, r4
     328:	4628      	mov	r0, r5
     32a:	9600      	str	r6, [sp, #0]
     32c:	2302      	movs	r3, #2
     32e:	21d2      	movs	r1, #210	; 0xd2
     330:	f001 faea 	bl	1908 <mbed::I2C::write(int, char const*, int, bool)>
     334:	2323      	movs	r3, #35	; 0x23
     336:	7067      	strb	r7, [r4, #1]
     338:	4628      	mov	r0, r5
     33a:	9600      	str	r6, [sp, #0]
     33c:	4622      	mov	r2, r4
     33e:	7023      	strb	r3, [r4, #0]
     340:	21d2      	movs	r1, #210	; 0xd2
     342:	2302      	movs	r3, #2
     344:	f001 fae0 	bl	1908 <mbed::I2C::write(int, char const*, int, bool)>
     348:	4620      	mov	r0, r4
     34a:	b003      	add	sp, #12
     34c:	bdf0      	pop	{r4, r5, r6, r7, pc}
     34e:	bf00      	nop
     350:	00061a80 	.word	0x00061a80

00000354 <L3G4200D::read(int*)>:
     354:	b5f0      	push	{r4, r5, r6, r7, lr}
     356:	4606      	mov	r6, r0
     358:	4604      	mov	r4, r0
     35a:	23a8      	movs	r3, #168	; 0xa8
     35c:	f806 3b14 	strb.w	r3, [r6], #20
     360:	b083      	sub	sp, #12
     362:	2700      	movs	r7, #0
     364:	460d      	mov	r5, r1
     366:	4622      	mov	r2, r4
     368:	9700      	str	r7, [sp, #0]
     36a:	4630      	mov	r0, r6
     36c:	2301      	movs	r3, #1
     36e:	21d2      	movs	r1, #210	; 0xd2
     370:	f001 faca 	bl	1908 <mbed::I2C::write(int, char const*, int, bool)>
     374:	9700      	str	r7, [sp, #0]
     376:	4622      	mov	r2, r4
     378:	4630      	mov	r0, r6
     37a:	2306      	movs	r3, #6
     37c:	21d2      	movs	r1, #210	; 0xd2
     37e:	f001 fae5 	bl	194c <mbed::I2C::read(int, char*, int, bool)>
     382:	78a2      	ldrb	r2, [r4, #2]
     384:	78e7      	ldrb	r7, [r4, #3]
     386:	7923      	ldrb	r3, [r4, #4]
     388:	7966      	ldrb	r6, [r4, #5]
     38a:	7860      	ldrb	r0, [r4, #1]
     38c:	7821      	ldrb	r1, [r4, #0]
     38e:	ea42 2207 	orr.w	r2, r2, r7, lsl #8
     392:	ea43 2306 	orr.w	r3, r3, r6, lsl #8
     396:	ea41 2100 	orr.w	r1, r1, r0, lsl #8
     39a:	b212      	sxth	r2, r2
     39c:	b21b      	sxth	r3, r3
     39e:	b209      	sxth	r1, r1
     3a0:	e885 000e 	stmia.w	r5, {r1, r2, r3}
     3a4:	b003      	add	sp, #12
     3a6:	bdf0      	pop	{r4, r5, r6, r7, pc}

000003a8 <MPL115A2::MPL115A2(mbed::I2C*, PinName)>:
     3a8:	b570      	push	{r4, r5, r6, lr}
     3aa:	4604      	mov	r4, r0
     3ac:	460e      	mov	r6, r1
     3ae:	2500      	movs	r5, #0
     3b0:	6005      	str	r5, [r0, #0]
     3b2:	6045      	str	r5, [r0, #4]
     3b4:	6085      	str	r5, [r0, #8]
     3b6:	60c5      	str	r5, [r0, #12]
     3b8:	6105      	str	r5, [r0, #16]
     3ba:	6145      	str	r5, [r0, #20]
     3bc:	4611      	mov	r1, r2
     3be:	f000 f9d7 	bl	770 <gpio_init_out>
     3c2:	23c0      	movs	r3, #192	; 0xc0
     3c4:	62e6      	str	r6, [r4, #44]	; 0x2c
     3c6:	6325      	str	r5, [r4, #48]	; 0x30
     3c8:	f884 5034 	strb.w	r5, [r4, #52]	; 0x34
     3cc:	8363      	strh	r3, [r4, #26]
     3ce:	4620      	mov	r0, r4
     3d0:	bd70      	pop	{r4, r5, r6, pc}
     3d2:	bf00      	nop

000003d4 <MPL115A2::ReadSensor()>:
     3d4:	b570      	push	{r4, r5, r6, lr}
     3d6:	4604      	mov	r4, r0
     3d8:	68c3      	ldr	r3, [r0, #12]
     3da:	6842      	ldr	r2, [r0, #4]
     3dc:	2500      	movs	r5, #0
     3de:	b084      	sub	sp, #16
     3e0:	601a      	str	r2, [r3, #0]
     3e2:	483b      	ldr	r0, [pc, #236]	; (4d0 <MPL115A2::ReadSensor()+0xfc>)
     3e4:	7625      	strb	r5, [r4, #24]
     3e6:	f000 faa5 	bl	934 <wait>
     3ea:	2612      	movs	r6, #18
     3ec:	f9b4 101a 	ldrsh.w	r1, [r4, #26]
     3f0:	6ae0      	ldr	r0, [r4, #44]	; 0x2c
     3f2:	2302      	movs	r3, #2
     3f4:	9500      	str	r5, [sp, #0]
     3f6:	aa02      	add	r2, sp, #8
     3f8:	2501      	movs	r5, #1
     3fa:	f88d 6008 	strb.w	r6, [sp, #8]
     3fe:	f88d 5009 	strb.w	r5, [sp, #9]
     402:	f001 fa81 	bl	1908 <mbed::I2C::write(int, char const*, int, bool)>
     406:	f894 3034 	ldrb.w	r3, [r4, #52]	; 0x34
     40a:	b133      	cbz	r3, 41a <MPL115A2::ReadSensor()+0x46>
     40c:	2800      	cmp	r0, #0
     40e:	d157      	bne.n	4c0 <MPL115A2::ReadSensor()+0xec>
     410:	6b20      	ldr	r0, [r4, #48]	; 0x30
     412:	4930      	ldr	r1, [pc, #192]	; (4d4 <MPL115A2::ReadSensor()+0x100>)
     414:	3040      	adds	r0, #64	; 0x40
     416:	f001 fcf9 	bl	1e0c <mbed::Stream::printf(char const*, ...)>
     41a:	482f      	ldr	r0, [pc, #188]	; (4d8 <MPL115A2::ReadSensor()+0x104>)
     41c:	2500      	movs	r5, #0
     41e:	f000 fa89 	bl	934 <wait>
     422:	f9b4 101a 	ldrsh.w	r1, [r4, #26]
     426:	6ae0      	ldr	r0, [r4, #44]	; 0x2c
     428:	2301      	movs	r3, #1
     42a:	aa02      	add	r2, sp, #8
     42c:	9500      	str	r5, [sp, #0]
     42e:	f88d 5008 	strb.w	r5, [sp, #8]
     432:	f001 fa69 	bl	1908 <mbed::I2C::write(int, char const*, int, bool)>
     436:	f894 3034 	ldrb.w	r3, [r4, #52]	; 0x34
     43a:	b133      	cbz	r3, 44a <MPL115A2::ReadSensor()+0x76>
     43c:	2800      	cmp	r0, #0
     43e:	d137      	bne.n	4b0 <MPL115A2::ReadSensor()+0xdc>
     440:	6b20      	ldr	r0, [r4, #48]	; 0x30
     442:	4926      	ldr	r1, [pc, #152]	; (4dc <MPL115A2::ReadSensor()+0x108>)
     444:	3040      	adds	r0, #64	; 0x40
     446:	f001 fce1 	bl	1e0c <mbed::Stream::printf(char const*, ...)>
     44a:	2300      	movs	r3, #0
     44c:	f9b4 101a 	ldrsh.w	r1, [r4, #26]
     450:	6ae0      	ldr	r0, [r4, #44]	; 0x2c
     452:	aa03      	add	r2, sp, #12
     454:	9300      	str	r3, [sp, #0]
     456:	2304      	movs	r3, #4
     458:	f001 fa78 	bl	194c <mbed::I2C::read(int, char*, int, bool)>
     45c:	f894 3034 	ldrb.w	r3, [r4, #52]	; 0x34
     460:	b1cb      	cbz	r3, 496 <MPL115A2::ReadSensor()+0xc2>
     462:	b9e0      	cbnz	r0, 49e <MPL115A2::ReadSensor()+0xca>
     464:	6b20      	ldr	r0, [r4, #48]	; 0x30
     466:	491e      	ldr	r1, [pc, #120]	; (4e0 <MPL115A2::ReadSensor()+0x10c>)
     468:	3040      	adds	r0, #64	; 0x40
     46a:	f001 fccf 	bl	1e0c <mbed::Stream::printf(char const*, ...)>
     46e:	f89d 000e 	ldrb.w	r0, [sp, #14]
     472:	f89d 200f 	ldrb.w	r2, [sp, #15]
     476:	f89d 100c 	ldrb.w	r1, [sp, #12]
     47a:	f89d 300d 	ldrb.w	r3, [sp, #13]
     47e:	eb02 2200 	add.w	r2, r2, r0, lsl #8
     482:	eb03 2301 	add.w	r3, r3, r1, lsl #8
     486:	f3c2 1289 	ubfx	r2, r2, #6, #10
     48a:	f3c3 1389 	ubfx	r3, r3, #6, #10
     48e:	8562      	strh	r2, [r4, #42]	; 0x2a
     490:	8523      	strh	r3, [r4, #40]	; 0x28
     492:	b004      	add	sp, #16
     494:	bd70      	pop	{r4, r5, r6, pc}
     496:	2800      	cmp	r0, #0
     498:	d0e9      	beq.n	46e <MPL115A2::ReadSensor()+0x9a>
     49a:	b004      	add	sp, #16
     49c:	bd70      	pop	{r4, r5, r6, pc}
     49e:	6b23      	ldr	r3, [r4, #48]	; 0x30
     4a0:	4602      	mov	r2, r0
     4a2:	4910      	ldr	r1, [pc, #64]	; (4e4 <MPL115A2::ReadSensor()+0x110>)
     4a4:	f103 0040 	add.w	r0, r3, #64	; 0x40
     4a8:	f001 fcb0 	bl	1e0c <mbed::Stream::printf(char const*, ...)>
     4ac:	b004      	add	sp, #16
     4ae:	bd70      	pop	{r4, r5, r6, pc}
     4b0:	6b23      	ldr	r3, [r4, #48]	; 0x30
     4b2:	4602      	mov	r2, r0
     4b4:	490c      	ldr	r1, [pc, #48]	; (4e8 <MPL115A2::ReadSensor()+0x114>)
     4b6:	f103 0040 	add.w	r0, r3, #64	; 0x40
     4ba:	f001 fca7 	bl	1e0c <mbed::Stream::printf(char const*, ...)>
     4be:	e7c4      	b.n	44a <MPL115A2::ReadSensor()+0x76>
     4c0:	6b23      	ldr	r3, [r4, #48]	; 0x30
     4c2:	4602      	mov	r2, r0
     4c4:	4909      	ldr	r1, [pc, #36]	; (4ec <MPL115A2::ReadSensor()+0x118>)
     4c6:	f103 0040 	add.w	r0, r3, #64	; 0x40
     4ca:	f001 fc9f 	bl	1e0c <mbed::Stream::printf(char const*, ...)>
     4ce:	e7a4      	b.n	41a <MPL115A2::ReadSensor()+0x46>
     4d0:	3a83126f 	.word	0x3a83126f
     4d4:	000049dc 	.word	0x000049dc
     4d8:	3c23d70a 	.word	0x3c23d70a
     4dc:	00004a30 	.word	0x00004a30
     4e0:	00004a90 	.word	0x00004a90
     4e4:	00004abc 	.word	0x00004abc
     4e8:	00004a60 	.word	0x00004a60
     4ec:	00004a04 	.word	0x00004a04

000004f0 <MPL115A2::GetPressure()>:
     4f0:	f9b0 201e 	ldrsh.w	r2, [r0, #30]
     4f4:	8d03      	ldrh	r3, [r0, #40]	; 0x28
     4f6:	f9b0 1024 	ldrsh.w	r1, [r0, #36]	; 0x24
     4fa:	0392      	lsls	r2, r2, #14
     4fc:	fb03 2201 	mla	r2, r3, r1, r2
     500:	b510      	push	{r4, lr}
     502:	f9b0 1022 	ldrsh.w	r1, [r0, #34]	; 0x22
     506:	8d44      	ldrh	r4, [r0, #42]	; 0x2a
     508:	1392      	asrs	r2, r2, #14
     50a:	02d2      	lsls	r2, r2, #11
     50c:	fb04 2201 	mla	r2, r4, r1, r2
     510:	f9b0 101c 	ldrsh.w	r1, [r0, #28]
     514:	12d2      	asrs	r2, r2, #11
     516:	0289      	lsls	r1, r1, #10
     518:	fb03 1302 	mla	r3, r3, r2, r1
     51c:	f9b0 2020 	ldrsh.w	r2, [r0, #32]
     520:	f423 737f 	bic.w	r3, r3, #1020	; 0x3fc
     524:	1052      	asrs	r2, r2, #1
     526:	f023 0303 	bic.w	r3, r3, #3
     52a:	fb04 3302 	mla	r3, r4, r2, r3
     52e:	f890 2034 	ldrb.w	r2, [r0, #52]	; 0x34
     532:	f3c3 334f 	ubfx	r3, r3, #13, #16
     536:	b97a      	cbnz	r2, 558 <MPL115A2::GetPressure()+0x68>
     538:	b21c      	sxth	r4, r3
     53a:	4620      	mov	r0, r4
     53c:	f001 fdf8 	bl	2130 <__aeabi_i2d>
     540:	a309      	add	r3, pc, #36	; (adr r3, 568 <MPL115A2::GetPressure()+0x78>)
     542:	e9d3 2300 	ldrd	r2, r3, [r3]
     546:	f001 fe59 	bl	21fc <__aeabi_dmul>
     54a:	2200      	movs	r2, #0
     54c:	4b08      	ldr	r3, [pc, #32]	; (570 <MPL115A2::GetPressure()+0x80>)
     54e:	f001 fca3 	bl	1e98 <__adddf3>
     552:	f002 f865 	bl	2620 <__aeabi_d2f>
     556:	bd10      	pop	{r4, pc}
     558:	6b00      	ldr	r0, [r0, #48]	; 0x30
     55a:	b21c      	sxth	r4, r3
     55c:	4622      	mov	r2, r4
     55e:	4905      	ldr	r1, [pc, #20]	; (574 <MPL115A2::GetPressure()+0x84>)
     560:	3040      	adds	r0, #64	; 0x40
     562:	f001 fc53 	bl	1e0c <mbed::Stream::printf(char const*, ...)>
     566:	e7e8      	b.n	53a <MPL115A2::GetPressure()+0x4a>
     568:	45515455 	.word	0x45515455
     56c:	3fe45515 	.word	0x3fe45515
     570:	407f4000 	.word	0x407f4000
     574:	00004aec 	.word	0x00004aec

00000578 <MPL115A2::GetTemperature()>:
     578:	b508      	push	{r3, lr}
     57a:	8d40      	ldrh	r0, [r0, #42]	; 0x2a
     57c:	f001 fdd8 	bl	2130 <__aeabi_i2d>
     580:	a309      	add	r3, pc, #36	; (adr r3, 5a8 <MPL115A2::GetTemperature()+0x30>)
     582:	e9d3 2300 	ldrd	r2, r3, [r3]
     586:	f001 fc85 	bl	1e94 <__aeabi_dsub>
     58a:	a309      	add	r3, pc, #36	; (adr r3, 5b0 <MPL115A2::GetTemperature()+0x38>)
     58c:	e9d3 2300 	ldrd	r2, r3, [r3]
     590:	f001 ff5e 	bl	2450 <__aeabi_ddiv>
     594:	2200      	movs	r2, #0
     596:	4b08      	ldr	r3, [pc, #32]	; (5b8 <MPL115A2::GetTemperature()+0x40>)
     598:	f001 fc7e 	bl	1e98 <__adddf3>
     59c:	f002 f840 	bl	2620 <__aeabi_d2f>
     5a0:	bd08      	pop	{r3, pc}
     5a2:	bf00      	nop
     5a4:	f3af 8000 	nop.w
     5a8:	00000000 	.word	0x00000000
     5ac:	407f2000 	.word	0x407f2000
     5b0:	66666666 	.word	0x66666666
     5b4:	c0156666 	.word	0xc0156666
     5b8:	40390000 	.word	0x40390000

000005bc <MPL115A2::begin()>:
     5bc:	b5f0      	push	{r4, r5, r6, r7, lr}
     5be:	4604      	mov	r4, r0
     5c0:	68c3      	ldr	r3, [r0, #12]
     5c2:	6842      	ldr	r2, [r0, #4]
     5c4:	2500      	movs	r5, #0
     5c6:	b087      	sub	sp, #28
     5c8:	601a      	str	r2, [r3, #0]
     5ca:	4822      	ldr	r0, [pc, #136]	; (654 <MPL115A2::begin()+0x98>)
     5cc:	7625      	strb	r5, [r4, #24]
     5ce:	f000 f9b1 	bl	934 <wait>
     5d2:	aa06      	add	r2, sp, #24
     5d4:	2304      	movs	r3, #4
     5d6:	f802 3d10 	strb.w	r3, [r2, #-16]!
     5da:	f9b4 101a 	ldrsh.w	r1, [r4, #26]
     5de:	6ae0      	ldr	r0, [r4, #44]	; 0x2c
     5e0:	2301      	movs	r3, #1
     5e2:	9500      	str	r5, [sp, #0]
     5e4:	f001 f990 	bl	1908 <mbed::I2C::write(int, char const*, int, bool)>
     5e8:	230c      	movs	r3, #12
     5ea:	f9b4 101a 	ldrsh.w	r1, [r4, #26]
     5ee:	6ae0      	ldr	r0, [r4, #44]	; 0x2c
     5f0:	eb0d 0203 	add.w	r2, sp, r3
     5f4:	9500      	str	r5, [sp, #0]
     5f6:	f001 f9a9 	bl	194c <mbed::I2C::read(int, char*, int, bool)>
     5fa:	bb48      	cbnz	r0, 650 <MPL115A2::begin()+0x94>
     5fc:	f89d 300f 	ldrb.w	r3, [sp, #15]
     600:	f89d 600e 	ldrb.w	r6, [sp, #14]
     604:	f89d 7010 	ldrb.w	r7, [sp, #16]
     608:	f89d 2012 	ldrb.w	r2, [sp, #18]
     60c:	eb03 2606 	add.w	r6, r3, r6, lsl #8
     610:	f89d 5011 	ldrb.w	r5, [sp, #17]
     614:	f89d 3015 	ldrb.w	r3, [sp, #21]
     618:	f89d 0013 	ldrb.w	r0, [sp, #19]
     61c:	f89d 1014 	ldrb.w	r1, [sp, #20]
     620:	eb05 2507 	add.w	r5, r5, r7, lsl #8
     624:	eb00 2002 	add.w	r0, r0, r2, lsl #8
     628:	eb03 2101 	add.w	r1, r3, r1, lsl #8
     62c:	f89d e016 	ldrb.w	lr, [sp, #22]
     630:	f89d 2017 	ldrb.w	r2, [sp, #23]
     634:	f89d 700c 	ldrb.w	r7, [sp, #12]
     638:	f89d 300d 	ldrb.w	r3, [sp, #13]
     63c:	eb02 220e 	add.w	r2, r2, lr, lsl #8
     640:	eb03 2307 	add.w	r3, r3, r7, lsl #8
     644:	83e6      	strh	r6, [r4, #30]
     646:	8425      	strh	r5, [r4, #32]
     648:	8460      	strh	r0, [r4, #34]	; 0x22
     64a:	84a1      	strh	r1, [r4, #36]	; 0x24
     64c:	84e2      	strh	r2, [r4, #38]	; 0x26
     64e:	83a3      	strh	r3, [r4, #28]
     650:	b007      	add	sp, #28
     652:	bdf0      	pop	{r4, r5, r6, r7, pc}
     654:	3a83126f 	.word	0x3a83126f

00000658 <_start>:
     658:	4a07      	ldr	r2, [pc, #28]	; (678 <_start+0x20>)
     65a:	4808      	ldr	r0, [pc, #32]	; (67c <_start+0x24>)
     65c:	b508      	push	{r3, lr}
     65e:	2100      	movs	r1, #0
     660:	1a12      	subs	r2, r2, r0
     662:	f002 fd3f 	bl	30e4 <memset>
     666:	f3af 8000 	nop.w
     66a:	f002 fc85 	bl	2f78 <__libc_init_array>
     66e:	f001 fac3 	bl	1bf8 <__wrap_main>
     672:	f002 f9af 	bl	29d4 <exit>
     676:	bf00      	nop
     678:	10000440 	.word	0x10000440
     67c:	10000148 	.word	0x10000148

00000680 <__wrap__isatty>:
     680:	2802      	cmp	r0, #2
     682:	dc01      	bgt.n	688 <__wrap__isatty+0x8>
     684:	2001      	movs	r0, #1
     686:	4770      	bx	lr
     688:	f001 ba7e 	b.w	1b88 <_isatty>

0000068c <__wrap_malloc>:
     68c:	f3ef 8305 	mrs	r3, IPSR
     690:	b103      	cbz	r3, 694 <__wrap_malloc+0x8>
     692:	be00      	bkpt	0x0000
     694:	f002 bce2 	b.w	305c <malloc>

00000698 <__wrap_free>:
     698:	f3ef 8305 	mrs	r3, IPSR
     69c:	b103      	cbz	r3, 6a0 <__wrap_free+0x8>
     69e:	be00      	bkpt	0x0000
     6a0:	f002 bce4 	b.w	306c <free>

000006a4 <abort>:
     6a4:	b508      	push	{r3, lr}
     6a6:	2001      	movs	r0, #1
     6a8:	f002 f994 	bl	29d4 <exit>

000006ac <__cxa_pure_virtual>:
     6ac:	b508      	push	{r3, lr}
     6ae:	f7ff fff9 	bl	6a4 <abort>
     6b2:	bf00      	nop

000006b4 <mbed_die>:
     6b4:	b500      	push	{lr}
     6b6:	b099      	sub	sp, #100	; 0x64
     6b8:	b672      	cpsid	i
     6ba:	4917      	ldr	r1, [pc, #92]	; (718 <mbed_die+0x64>)
     6bc:	4668      	mov	r0, sp
     6be:	f000 f857 	bl	770 <gpio_init_out>
     6c2:	a806      	add	r0, sp, #24
     6c4:	4915      	ldr	r1, [pc, #84]	; (71c <mbed_die+0x68>)
     6c6:	f000 f853 	bl	770 <gpio_init_out>
     6ca:	a80c      	add	r0, sp, #48	; 0x30
     6cc:	4914      	ldr	r1, [pc, #80]	; (720 <mbed_die+0x6c>)
     6ce:	f000 f84f 	bl	770 <gpio_init_out>
     6d2:	a812      	add	r0, sp, #72	; 0x48
     6d4:	4913      	ldr	r1, [pc, #76]	; (724 <mbed_die+0x70>)
     6d6:	f000 f84b 	bl	770 <gpio_init_out>
     6da:	9a03      	ldr	r2, [sp, #12]
     6dc:	9901      	ldr	r1, [sp, #4]
     6de:	9b0a      	ldr	r3, [sp, #40]	; 0x28
     6e0:	6011      	str	r1, [r2, #0]
     6e2:	9907      	ldr	r1, [sp, #28]
     6e4:	9a10      	ldr	r2, [sp, #64]	; 0x40
     6e6:	6019      	str	r1, [r3, #0]
     6e8:	990d      	ldr	r1, [sp, #52]	; 0x34
     6ea:	9b15      	ldr	r3, [sp, #84]	; 0x54
     6ec:	6011      	str	r1, [r2, #0]
     6ee:	9a13      	ldr	r2, [sp, #76]	; 0x4c
     6f0:	2096      	movs	r0, #150	; 0x96
     6f2:	601a      	str	r2, [r3, #0]
     6f4:	f000 f92a 	bl	94c <wait_ms>
     6f8:	9a04      	ldr	r2, [sp, #16]
     6fa:	9901      	ldr	r1, [sp, #4]
     6fc:	9b09      	ldr	r3, [sp, #36]	; 0x24
     6fe:	6011      	str	r1, [r2, #0]
     700:	9907      	ldr	r1, [sp, #28]
     702:	9a0f      	ldr	r2, [sp, #60]	; 0x3c
     704:	6019      	str	r1, [r3, #0]
     706:	990d      	ldr	r1, [sp, #52]	; 0x34
     708:	9b16      	ldr	r3, [sp, #88]	; 0x58
     70a:	6011      	str	r1, [r2, #0]
     70c:	9a13      	ldr	r2, [sp, #76]	; 0x4c
     70e:	2096      	movs	r0, #150	; 0x96
     710:	601a      	str	r2, [r3, #0]
     712:	f000 f91b 	bl	94c <wait_ms>
     716:	e7e0      	b.n	6da <mbed_die+0x26>
     718:	2009c032 	.word	0x2009c032
     71c:	2009c034 	.word	0x2009c034
     720:	2009c035 	.word	0x2009c035
     724:	2009c037 	.word	0x2009c037

00000728 <error>:
     728:	b40f      	push	{r0, r1, r2, r3}
     72a:	b500      	push	{lr}
     72c:	4a06      	ldr	r2, [pc, #24]	; (748 <error+0x20>)
     72e:	b083      	sub	sp, #12
     730:	ab04      	add	r3, sp, #16
     732:	f853 1b04 	ldr.w	r1, [r3], #4
     736:	6810      	ldr	r0, [r2, #0]
     738:	461a      	mov	r2, r3
     73a:	68c0      	ldr	r0, [r0, #12]
     73c:	9301      	str	r3, [sp, #4]
     73e:	f002 feb5 	bl	34ac <vfiprintf>
     742:	2001      	movs	r0, #1
     744:	f002 f946 	bl	29d4 <exit>
     748:	10000134 	.word	0x10000134

0000074c <gpio_init_in>:
     74c:	b538      	push	{r3, r4, r5, lr}
     74e:	460d      	mov	r5, r1
     750:	4604      	mov	r4, r0
     752:	f000 f97b 	bl	a4c <gpio_init>
     756:	3501      	adds	r5, #1
     758:	d009      	beq.n	76e <gpio_init_in+0x22>
     75a:	4620      	mov	r0, r4
     75c:	2100      	movs	r1, #0
     75e:	f000 f997 	bl	a90 <gpio_dir>
     762:	4620      	mov	r0, r4
     764:	e8bd 4038 	ldmia.w	sp!, {r3, r4, r5, lr}
     768:	2103      	movs	r1, #3
     76a:	f000 b98d 	b.w	a88 <gpio_mode>
     76e:	bd38      	pop	{r3, r4, r5, pc}

00000770 <gpio_init_out>:
     770:	b538      	push	{r3, r4, r5, lr}
     772:	460d      	mov	r5, r1
     774:	4604      	mov	r4, r0
     776:	f000 f969 	bl	a4c <gpio_init>
     77a:	3501      	adds	r5, #1
     77c:	d00c      	beq.n	798 <gpio_init_out+0x28>
     77e:	6923      	ldr	r3, [r4, #16]
     780:	6862      	ldr	r2, [r4, #4]
     782:	4620      	mov	r0, r4
     784:	2101      	movs	r1, #1
     786:	601a      	str	r2, [r3, #0]
     788:	f000 f982 	bl	a90 <gpio_dir>
     78c:	4620      	mov	r0, r4
     78e:	e8bd 4038 	ldmia.w	sp!, {r3, r4, r5, lr}
     792:	2102      	movs	r1, #2
     794:	f000 b978 	b.w	a88 <gpio_mode>
     798:	bd38      	pop	{r3, r4, r5, pc}
     79a:	bf00      	nop

0000079c <gpio_init_out_ex>:
     79c:	b570      	push	{r4, r5, r6, lr}
     79e:	460d      	mov	r5, r1
     7a0:	4616      	mov	r6, r2
     7a2:	4604      	mov	r4, r0
     7a4:	f000 f952 	bl	a4c <gpio_init>
     7a8:	3501      	adds	r5, #1
     7aa:	d011      	beq.n	7d0 <gpio_init_out_ex+0x34>
     7ac:	b966      	cbnz	r6, 7c8 <gpio_init_out_ex+0x2c>
     7ae:	6923      	ldr	r3, [r4, #16]
     7b0:	6862      	ldr	r2, [r4, #4]
     7b2:	601a      	str	r2, [r3, #0]
     7b4:	4620      	mov	r0, r4
     7b6:	2101      	movs	r1, #1
     7b8:	f000 f96a 	bl	a90 <gpio_dir>
     7bc:	4620      	mov	r0, r4
     7be:	e8bd 4070 	ldmia.w	sp!, {r4, r5, r6, lr}
     7c2:	2102      	movs	r1, #2
     7c4:	f000 b960 	b.w	a88 <gpio_mode>
     7c8:	68e3      	ldr	r3, [r4, #12]
     7ca:	6862      	ldr	r2, [r4, #4]
     7cc:	601a      	str	r2, [r3, #0]
     7ce:	e7f1      	b.n	7b4 <gpio_init_out_ex+0x18>
     7d0:	bd70      	pop	{r4, r5, r6, pc}
     7d2:	bf00      	nop

000007d4 <mbed_interface_connected>:
     7d4:	f000 b86e 	b.w	8b4 <semihost_connected>

000007d8 <pinmap_pinout>:
     7d8:	1c43      	adds	r3, r0, #1
     7da:	d01c      	beq.n	816 <Heap_Size+0x16>
     7dc:	680b      	ldr	r3, [r1, #0]
     7de:	1c5a      	adds	r2, r3, #1
     7e0:	d01a      	beq.n	818 <Heap_Size+0x18>
     7e2:	4298      	cmp	r0, r3
     7e4:	b510      	push	{r4, lr}
     7e6:	4604      	mov	r4, r0
     7e8:	d102      	bne.n	7f0 <pinmap_pinout+0x18>
     7ea:	e00a      	b.n	802 <Heap_Size+0x2>
     7ec:	429c      	cmp	r4, r3
     7ee:	d008      	beq.n	802 <Heap_Size+0x2>
     7f0:	f851 3f0c 	ldr.w	r3, [r1, #12]!
     7f4:	1c5a      	adds	r2, r3, #1
     7f6:	d1f9      	bne.n	7ec <pinmap_pinout+0x14>
     7f8:	4809      	ldr	r0, [pc, #36]	; (820 <Heap_Size+0x20>)
     7fa:	e8bd 4010 	ldmia.w	sp!, {r4, lr}
     7fe:	f7ff bf93 	b.w	728 <error>
     802:	4620      	mov	r0, r4
     804:	6889      	ldr	r1, [r1, #8]
     806:	f000 fad5 	bl	db4 <pin_function>
     80a:	4620      	mov	r0, r4
     80c:	e8bd 4010 	ldmia.w	sp!, {r4, lr}
     810:	2102      	movs	r1, #2
     812:	f000 baeb 	b.w	dec <pin_mode>
     816:	4770      	bx	lr
     818:	4801      	ldr	r0, [pc, #4]	; (820 <Heap_Size+0x20>)
     81a:	f7ff bf85 	b.w	728 <error>
     81e:	bf00      	nop
     820:	00004b20 	.word	0x00004b20

00000824 <pinmap_merge>:
     824:	4288      	cmp	r0, r1
     826:	d00a      	beq.n	83e <pinmap_merge+0x1a>
     828:	1c42      	adds	r2, r0, #1
     82a:	d009      	beq.n	840 <pinmap_merge+0x1c>
     82c:	3101      	adds	r1, #1
     82e:	d006      	beq.n	83e <pinmap_merge+0x1a>
     830:	b508      	push	{r3, lr}
     832:	4804      	ldr	r0, [pc, #16]	; (844 <pinmap_merge+0x20>)
     834:	f7ff ff78 	bl	728 <error>
     838:	f04f 30ff 	mov.w	r0, #4294967295
     83c:	bd08      	pop	{r3, pc}
     83e:	4770      	bx	lr
     840:	4608      	mov	r0, r1
     842:	4770      	bx	lr
     844:	00004b34 	.word	0x00004b34

00000848 <pinmap_find_peripheral>:
     848:	680b      	ldr	r3, [r1, #0]
     84a:	1c5a      	adds	r2, r3, #1
     84c:	d008      	beq.n	860 <pinmap_find_peripheral+0x18>
     84e:	4298      	cmp	r0, r3
     850:	d102      	bne.n	858 <pinmap_find_peripheral+0x10>
     852:	e007      	b.n	864 <pinmap_find_peripheral+0x1c>
     854:	4283      	cmp	r3, r0
     856:	d005      	beq.n	864 <pinmap_find_peripheral+0x1c>
     858:	f851 3f0c 	ldr.w	r3, [r1, #12]!
     85c:	1c5a      	adds	r2, r3, #1
     85e:	d1f9      	bne.n	854 <pinmap_find_peripheral+0xc>
     860:	4618      	mov	r0, r3
     862:	4770      	bx	lr
     864:	6848      	ldr	r0, [r1, #4]
     866:	4770      	bx	lr

00000868 <pinmap_peripheral>:
     868:	1c42      	adds	r2, r0, #1
     86a:	d00e      	beq.n	88a <pinmap_peripheral+0x22>
     86c:	b508      	push	{r3, lr}
     86e:	680b      	ldr	r3, [r1, #0]
     870:	1c5a      	adds	r2, r3, #1
     872:	d104      	bne.n	87e <pinmap_peripheral+0x16>
     874:	e00a      	b.n	88c <pinmap_peripheral+0x24>
     876:	f851 3f0c 	ldr.w	r3, [r1, #12]!
     87a:	1c5a      	adds	r2, r3, #1
     87c:	d006      	beq.n	88c <pinmap_peripheral+0x24>
     87e:	4298      	cmp	r0, r3
     880:	d1f9      	bne.n	876 <pinmap_peripheral+0xe>
     882:	6848      	ldr	r0, [r1, #4]
     884:	1c41      	adds	r1, r0, #1
     886:	d001      	beq.n	88c <pinmap_peripheral+0x24>
     888:	bd08      	pop	{r3, pc}
     88a:	4770      	bx	lr
     88c:	4802      	ldr	r0, [pc, #8]	; (898 <pinmap_peripheral+0x30>)
     88e:	f7ff ff4b 	bl	728 <error>
     892:	f04f 30ff 	mov.w	r0, #4294967295
     896:	bd08      	pop	{r3, pc}
     898:	00004b48 	.word	0x00004b48

0000089c <semihost_exit>:
     89c:	b530      	push	{r4, r5, lr}
     89e:	b085      	sub	sp, #20
     8a0:	2418      	movs	r4, #24
     8a2:	466d      	mov	r5, sp
     8a4:	4620      	mov	r0, r4
     8a6:	4629      	mov	r1, r5
     8a8:	beab      	bkpt	0x00ab
     8aa:	4604      	mov	r4, r0
     8ac:	4620      	mov	r0, r4
     8ae:	b005      	add	sp, #20
     8b0:	bd30      	pop	{r4, r5, pc}
     8b2:	bf00      	nop

000008b4 <semihost_connected>:
     8b4:	4b02      	ldr	r3, [pc, #8]	; (8c0 <semihost_connected+0xc>)
     8b6:	6818      	ldr	r0, [r3, #0]
     8b8:	f000 0001 	and.w	r0, r0, #1
     8bc:	4770      	bx	lr
     8be:	bf00      	nop
     8c0:	e000edf0 	.word	0xe000edf0

000008c4 <ticker_irq_handler>:
     8c4:	6803      	ldr	r3, [r0, #0]
     8c6:	b570      	push	{r4, r5, r6, lr}
     8c8:	68db      	ldr	r3, [r3, #12]
     8ca:	4605      	mov	r5, r0
     8cc:	4798      	blx	r3
     8ce:	686b      	ldr	r3, [r5, #4]
     8d0:	685b      	ldr	r3, [r3, #4]
     8d2:	b183      	cbz	r3, 8f6 <ticker_irq_handler+0x32>
     8d4:	682a      	ldr	r2, [r5, #0]
     8d6:	681c      	ldr	r4, [r3, #0]
     8d8:	6853      	ldr	r3, [r2, #4]
     8da:	4798      	blx	r3
     8dc:	1a20      	subs	r0, r4, r0
     8de:	2800      	cmp	r0, #0
     8e0:	686a      	ldr	r2, [r5, #4]
     8e2:	dc0d      	bgt.n	900 <ticker_irq_handler+0x3c>
     8e4:	6850      	ldr	r0, [r2, #4]
     8e6:	6811      	ldr	r1, [r2, #0]
     8e8:	6883      	ldr	r3, [r0, #8]
     8ea:	6053      	str	r3, [r2, #4]
     8ec:	2900      	cmp	r1, #0
     8ee:	d0f0      	beq.n	8d2 <ticker_irq_handler+0xe>
     8f0:	6840      	ldr	r0, [r0, #4]
     8f2:	4788      	blx	r1
     8f4:	e7eb      	b.n	8ce <ticker_irq_handler+0xa>
     8f6:	682b      	ldr	r3, [r5, #0]
     8f8:	e8bd 4070 	ldmia.w	sp!, {r4, r5, r6, lr}
     8fc:	689b      	ldr	r3, [r3, #8]
     8fe:	4718      	bx	r3
     900:	682b      	ldr	r3, [r5, #0]
     902:	6852      	ldr	r2, [r2, #4]
     904:	691b      	ldr	r3, [r3, #16]
     906:	6810      	ldr	r0, [r2, #0]
     908:	e8bd 4070 	ldmia.w	sp!, {r4, r5, r6, lr}
     90c:	4718      	bx	r3
     90e:	bf00      	nop

00000910 <us_ticker_irq_handler>:
     910:	4801      	ldr	r0, [pc, #4]	; (918 <us_ticker_irq_handler+0x8>)
     912:	f7ff bfd7 	b.w	8c4 <ticker_irq_handler>
     916:	bf00      	nop
     918:	00004b9c 	.word	0x00004b9c

0000091c <wait_us>:
     91c:	b538      	push	{r3, r4, r5, lr}
     91e:	4605      	mov	r5, r0
     920:	f000 feb0 	bl	1684 <us_ticker_read>
     924:	4604      	mov	r4, r0
     926:	f000 fead 	bl	1684 <us_ticker_read>
     92a:	1b00      	subs	r0, r0, r4
     92c:	42a8      	cmp	r0, r5
     92e:	d3fa      	bcc.n	926 <wait_us+0xa>
     930:	bd38      	pop	{r3, r4, r5, pc}
     932:	bf00      	nop

00000934 <wait>:
     934:	b508      	push	{r3, lr}
     936:	4904      	ldr	r1, [pc, #16]	; (948 <wait+0x14>)
     938:	f001 fec2 	bl	26c0 <__aeabi_fmul>
     93c:	f002 f810 	bl	2960 <__aeabi_f2iz>
     940:	e8bd 4008 	ldmia.w	sp!, {r3, lr}
     944:	f7ff bfea 	b.w	91c <wait_us>
     948:	49742400 	.word	0x49742400

0000094c <wait_ms>:
     94c:	f44f 737a 	mov.w	r3, #1000	; 0x3e8
     950:	fb03 f000 	mul.w	r0, r3, r0
     954:	f7ff bfe2 	b.w	91c <wait_us>

00000958 <NVIC_SetVector>:
     958:	4b0c      	ldr	r3, [pc, #48]	; (98c <NVIC_SetVector+0x34>)
     95a:	b430      	push	{r4, r5}
     95c:	689d      	ldr	r5, [r3, #8]
     95e:	689a      	ldr	r2, [r3, #8]
     960:	462b      	mov	r3, r5
     962:	f1b2 5f80 	cmp.w	r2, #268435456	; 0x10000000
     966:	d20c      	bcs.n	982 <NVIC_SetVector+0x2a>
     968:	4a09      	ldr	r2, [pc, #36]	; (990 <NVIC_SetVector+0x38>)
     96a:	35c4      	adds	r5, #196	; 0xc4
     96c:	f853 4b04 	ldr.w	r4, [r3], #4
     970:	42ab      	cmp	r3, r5
     972:	f842 4f04 	str.w	r4, [r2, #4]!
     976:	d1f9      	bne.n	96c <NVIC_SetVector+0x14>
     978:	f04f 5280 	mov.w	r2, #268435456	; 0x10000000
     97c:	4613      	mov	r3, r2
     97e:	4c03      	ldr	r4, [pc, #12]	; (98c <NVIC_SetVector+0x34>)
     980:	60a2      	str	r2, [r4, #8]
     982:	3010      	adds	r0, #16
     984:	f843 1020 	str.w	r1, [r3, r0, lsl #2]
     988:	bc30      	pop	{r4, r5}
     98a:	4770      	bx	lr
     98c:	e000ed00 	.word	0xe000ed00
     990:	0ffffffc 	.word	0x0ffffffc

00000994 <SystemInit>:
     994:	4a2b      	ldr	r2, [pc, #172]	; (a44 <SystemInit+0xb0>)
     996:	2320      	movs	r3, #32
     998:	b4f0      	push	{r4, r5, r6, r7}
     99a:	f8c2 31a0 	str.w	r3, [r2, #416]	; 0x1a0
     99e:	f8d2 31a0 	ldr.w	r3, [r2, #416]	; 0x1a0
     9a2:	0698      	lsls	r0, r3, #26
     9a4:	d445      	bmi.n	a32 <SystemInit+0x9e>
     9a6:	4b27      	ldr	r3, [pc, #156]	; (a44 <SystemInit+0xb0>)
     9a8:	2500      	movs	r5, #0
     9aa:	4619      	mov	r1, r3
     9ac:	2401      	movs	r4, #1
     9ae:	20aa      	movs	r0, #170	; 0xaa
     9b0:	2255      	movs	r2, #85	; 0x55
     9b2:	2702      	movs	r7, #2
     9b4:	260b      	movs	r6, #11
     9b6:	f8c3 7104 	str.w	r7, [r3, #260]	; 0x104
     9ba:	f8c3 51a8 	str.w	r5, [r3, #424]	; 0x1a8
     9be:	f8c3 51ac 	str.w	r5, [r3, #428]	; 0x1ac
     9c2:	f8c3 410c 	str.w	r4, [r3, #268]	; 0x10c
     9c6:	f8c3 6084 	str.w	r6, [r3, #132]	; 0x84
     9ca:	f8c3 008c 	str.w	r0, [r3, #140]	; 0x8c
     9ce:	f8c3 208c 	str.w	r2, [r3, #140]	; 0x8c
     9d2:	f8c3 4080 	str.w	r4, [r3, #128]	; 0x80
     9d6:	f8c3 008c 	str.w	r0, [r3, #140]	; 0x8c
     9da:	f8c3 208c 	str.w	r2, [r3, #140]	; 0x8c
     9de:	f8d1 3088 	ldr.w	r3, [r1, #136]	; 0x88
     9e2:	4a18      	ldr	r2, [pc, #96]	; (a44 <SystemInit+0xb0>)
     9e4:	015b      	lsls	r3, r3, #5
     9e6:	d5fa      	bpl.n	9de <SystemInit+0x4a>
     9e8:	4611      	mov	r1, r2
     9ea:	2403      	movs	r4, #3
     9ec:	20aa      	movs	r0, #170	; 0xaa
     9ee:	2355      	movs	r3, #85	; 0x55
     9f0:	f8c2 4080 	str.w	r4, [r2, #128]	; 0x80
     9f4:	f8c2 008c 	str.w	r0, [r2, #140]	; 0x8c
     9f8:	f8c2 308c 	str.w	r3, [r2, #140]	; 0x8c
     9fc:	f8d1 3088 	ldr.w	r3, [r1, #136]	; 0x88
     a00:	4a10      	ldr	r2, [pc, #64]	; (a44 <SystemInit+0xb0>)
     a02:	f013 7f40 	tst.w	r3, #50331648	; 0x3000000
     a06:	d0f9      	beq.n	9fc <SystemInit+0x68>
     a08:	490f      	ldr	r1, [pc, #60]	; (a48 <SystemInit+0xb4>)
     a0a:	2300      	movs	r3, #0
     a0c:	2005      	movs	r0, #5
     a0e:	f8c2 0108 	str.w	r0, [r2, #264]	; 0x108
     a12:	f8c2 10c4 	str.w	r1, [r2, #196]	; 0xc4
     a16:	f8c2 31c8 	str.w	r3, [r2, #456]	; 0x1c8
     a1a:	6813      	ldr	r3, [r2, #0]
     a1c:	bcf0      	pop	{r4, r5, r6, r7}
     a1e:	f423 4370 	bic.w	r3, r3, #61440	; 0xf000
     a22:	f023 033a 	bic.w	r3, r3, #58	; 0x3a
     a26:	f443 5340 	orr.w	r3, r3, #12288	; 0x3000
     a2a:	f043 033a 	orr.w	r3, r3, #58	; 0x3a
     a2e:	6013      	str	r3, [r2, #0]
     a30:	4770      	bx	lr
     a32:	f8d2 31a0 	ldr.w	r3, [r2, #416]	; 0x1a0
     a36:	0659      	lsls	r1, r3, #25
     a38:	d4b5      	bmi.n	9a6 <SystemInit+0x12>
     a3a:	f8d2 31a0 	ldr.w	r3, [r2, #416]	; 0x1a0
     a3e:	0659      	lsls	r1, r3, #25
     a40:	d5f7      	bpl.n	a32 <SystemInit+0x9e>
     a42:	e7b0      	b.n	9a6 <SystemInit+0x12>
     a44:	400fc000 	.word	0x400fc000
     a48:	042887de 	.word	0x042887de

00000a4c <gpio_init>:
     a4c:	1c4a      	adds	r2, r1, #1
     a4e:	6001      	str	r1, [r0, #0]
     a50:	d018      	beq.n	a84 <gpio_init+0x38>
     a52:	b538      	push	{r3, r4, r5, lr}
     a54:	460c      	mov	r4, r1
     a56:	4605      	mov	r5, r0
     a58:	2100      	movs	r1, #0
     a5a:	4620      	mov	r0, r4
     a5c:	f000 f9aa 	bl	db4 <pin_function>
     a60:	f024 011f 	bic.w	r1, r4, #31
     a64:	f004 021f 	and.w	r2, r4, #31
     a68:	2301      	movs	r3, #1
     a6a:	4093      	lsls	r3, r2
     a6c:	f101 0418 	add.w	r4, r1, #24
     a70:	f101 001c 	add.w	r0, r1, #28
     a74:	f101 0214 	add.w	r2, r1, #20
     a78:	60a9      	str	r1, [r5, #8]
     a7a:	606b      	str	r3, [r5, #4]
     a7c:	60ec      	str	r4, [r5, #12]
     a7e:	6128      	str	r0, [r5, #16]
     a80:	616a      	str	r2, [r5, #20]
     a82:	bd38      	pop	{r3, r4, r5, pc}
     a84:	4770      	bx	lr
     a86:	bf00      	nop

00000a88 <gpio_mode>:
     a88:	6800      	ldr	r0, [r0, #0]
     a8a:	f000 b9af 	b.w	dec <pin_mode>
     a8e:	bf00      	nop

00000a90 <gpio_dir>:
     a90:	b141      	cbz	r1, aa4 <gpio_dir+0x14>
     a92:	2901      	cmp	r1, #1
     a94:	d105      	bne.n	aa2 <gpio_dir+0x12>
     a96:	6882      	ldr	r2, [r0, #8]
     a98:	6843      	ldr	r3, [r0, #4]
     a9a:	6811      	ldr	r1, [r2, #0]
     a9c:	430b      	orrs	r3, r1
     a9e:	6013      	str	r3, [r2, #0]
     aa0:	4770      	bx	lr
     aa2:	4770      	bx	lr
     aa4:	6882      	ldr	r2, [r0, #8]
     aa6:	6841      	ldr	r1, [r0, #4]
     aa8:	6813      	ldr	r3, [r2, #0]
     aaa:	ea23 0301 	bic.w	r3, r3, r1
     aae:	6013      	str	r3, [r2, #0]
     ab0:	4770      	bx	lr
     ab2:	bf00      	nop

00000ab4 <i2c_init>:
     ab4:	b5f8      	push	{r3, r4, r5, r6, r7, lr}
     ab6:	460d      	mov	r5, r1
     ab8:	4606      	mov	r6, r0
     aba:	4925      	ldr	r1, [pc, #148]	; (b50 <i2c_init+0x9c>)
     abc:	4628      	mov	r0, r5
     abe:	4614      	mov	r4, r2
     ac0:	f7ff fed2 	bl	868 <pinmap_peripheral>
     ac4:	4923      	ldr	r1, [pc, #140]	; (b54 <i2c_init+0xa0>)
     ac6:	4607      	mov	r7, r0
     ac8:	4620      	mov	r0, r4
     aca:	f7ff fecd 	bl	868 <pinmap_peripheral>
     ace:	4601      	mov	r1, r0
     ad0:	4638      	mov	r0, r7
     ad2:	f7ff fea7 	bl	824 <pinmap_merge>
     ad6:	4b20      	ldr	r3, [pc, #128]	; (b58 <i2c_init+0xa4>)
     ad8:	4602      	mov	r2, r0
     ada:	4298      	cmp	r0, r3
     adc:	6030      	str	r0, [r6, #0]
     ade:	d02e      	beq.n	b3e <i2c_init+0x8a>
     ae0:	f503 2388 	add.w	r3, r3, #278528	; 0x44000
     ae4:	4298      	cmp	r0, r3
     ae6:	d022      	beq.n	b2e <i2c_init+0x7a>
     ae8:	f5a3 2304 	sub.w	r3, r3, #540672	; 0x84000
     aec:	4298      	cmp	r0, r3
     aee:	d016      	beq.n	b1e <i2c_init+0x6a>
     af0:	4b1a      	ldr	r3, [pc, #104]	; (b5c <i2c_init+0xa8>)
     af2:	491b      	ldr	r1, [pc, #108]	; (b60 <i2c_init+0xac>)
     af4:	681b      	ldr	r3, [r3, #0]
     af6:	273c      	movs	r7, #60	; 0x3c
     af8:	0a1b      	lsrs	r3, r3, #8
     afa:	fba1 1303 	umull	r1, r3, r1, r3
     afe:	2640      	movs	r6, #64	; 0x40
     b00:	091b      	lsrs	r3, r3, #4
     b02:	6153      	str	r3, [r2, #20]
     b04:	4628      	mov	r0, r5
     b06:	6113      	str	r3, [r2, #16]
     b08:	4911      	ldr	r1, [pc, #68]	; (b50 <i2c_init+0x9c>)
     b0a:	6197      	str	r7, [r2, #24]
     b0c:	6016      	str	r6, [r2, #0]
     b0e:	f7ff fe63 	bl	7d8 <pinmap_pinout>
     b12:	4620      	mov	r0, r4
     b14:	e8bd 40f8 	ldmia.w	sp!, {r3, r4, r5, r6, r7, lr}
     b18:	490e      	ldr	r1, [pc, #56]	; (b54 <i2c_init+0xa0>)
     b1a:	f7ff be5d 	b.w	7d8 <pinmap_pinout>
     b1e:	4911      	ldr	r1, [pc, #68]	; (b64 <i2c_init+0xb0>)
     b20:	f8d1 30c4 	ldr.w	r3, [r1, #196]	; 0xc4
     b24:	f043 0380 	orr.w	r3, r3, #128	; 0x80
     b28:	f8c1 30c4 	str.w	r3, [r1, #196]	; 0xc4
     b2c:	e7e0      	b.n	af0 <i2c_init+0x3c>
     b2e:	490d      	ldr	r1, [pc, #52]	; (b64 <i2c_init+0xb0>)
     b30:	f8d1 30c4 	ldr.w	r3, [r1, #196]	; 0xc4
     b34:	f043 6380 	orr.w	r3, r3, #67108864	; 0x4000000
     b38:	f8c1 30c4 	str.w	r3, [r1, #196]	; 0xc4
     b3c:	e7d8      	b.n	af0 <i2c_init+0x3c>
     b3e:	4909      	ldr	r1, [pc, #36]	; (b64 <i2c_init+0xb0>)
     b40:	f8d1 30c4 	ldr.w	r3, [r1, #196]	; 0xc4
     b44:	f443 2300 	orr.w	r3, r3, #524288	; 0x80000
     b48:	f8c1 30c4 	str.w	r3, [r1, #196]	; 0xc4
     b4c:	e7d0      	b.n	af0 <i2c_init+0x3c>
     b4e:	bf00      	nop
     b50:	00004ba4 	.word	0x00004ba4
     b54:	00004be0 	.word	0x00004be0
     b58:	4005c000 	.word	0x4005c000
     b5c:	100000cc 	.word	0x100000cc
     b60:	014f8b59 	.word	0x014f8b59
     b64:	400fc000 	.word	0x400fc000

00000b68 <i2c_frequency>:
     b68:	4b04      	ldr	r3, [pc, #16]	; (b7c <i2c_frequency+0x14>)
     b6a:	0049      	lsls	r1, r1, #1
     b6c:	681b      	ldr	r3, [r3, #0]
     b6e:	6802      	ldr	r2, [r0, #0]
     b70:	089b      	lsrs	r3, r3, #2
     b72:	fbb3 f1f1 	udiv	r1, r3, r1
     b76:	6151      	str	r1, [r2, #20]
     b78:	6111      	str	r1, [r2, #16]
     b7a:	4770      	bx	lr
     b7c:	100000cc 	.word	0x100000cc

00000b80 <i2c_read>:
     b80:	e92d 43f0 	stmdb	sp!, {r4, r5, r6, r7, r8, r9, lr}
     b84:	6804      	ldr	r4, [r0, #0]
     b86:	253c      	movs	r5, #60	; 0x3c
     b88:	4607      	mov	r7, r0
     b8a:	2024      	movs	r0, #36	; 0x24
     b8c:	61a5      	str	r5, [r4, #24]
     b8e:	4d4e      	ldr	r5, [pc, #312]	; (cc8 <Stack_Size+0xc8>)
     b90:	6020      	str	r0, [r4, #0]
     b92:	e001      	b.n	b98 <i2c_read+0x18>
     b94:	3d01      	subs	r5, #1
     b96:	d002      	beq.n	b9e <i2c_read+0x1e>
     b98:	6826      	ldr	r6, [r4, #0]
     b9a:	0736      	lsls	r6, r6, #28
     b9c:	d5fa      	bpl.n	b94 <i2c_read+0x14>
     b9e:	6860      	ldr	r0, [r4, #4]
     ba0:	2520      	movs	r5, #32
     ba2:	2810      	cmp	r0, #16
     ba4:	61a5      	str	r5, [r4, #24]
     ba6:	d010      	beq.n	bca <i2c_read+0x4a>
     ba8:	2808      	cmp	r0, #8
     baa:	d00e      	beq.n	bca <i2c_read+0x4a>
     bac:	2310      	movs	r3, #16
     bae:	2208      	movs	r2, #8
     bb0:	6023      	str	r3, [r4, #0]
     bb2:	4b45      	ldr	r3, [pc, #276]	; (cc8 <Stack_Size+0xc8>)
     bb4:	61a2      	str	r2, [r4, #24]
     bb6:	e001      	b.n	bbc <i2c_read+0x3c>
     bb8:	3b01      	subs	r3, #1
     bba:	d002      	beq.n	bc2 <i2c_read+0x42>
     bbc:	6822      	ldr	r2, [r4, #0]
     bbe:	06d5      	lsls	r5, r2, #27
     bc0:	d4fa      	bmi.n	bb8 <i2c_read+0x38>
     bc2:	f06f 0001 	mvn.w	r0, #1
     bc6:	e8bd 83f0 	ldmia.w	sp!, {r4, r5, r6, r7, r8, r9, pc}
     bca:	f041 0101 	orr.w	r1, r1, #1
     bce:	2008      	movs	r0, #8
     bd0:	60a1      	str	r1, [r4, #8]
     bd2:	493d      	ldr	r1, [pc, #244]	; (cc8 <Stack_Size+0xc8>)
     bd4:	61a0      	str	r0, [r4, #24]
     bd6:	e001      	b.n	bdc <i2c_read+0x5c>
     bd8:	3901      	subs	r1, #1
     bda:	d002      	beq.n	be2 <i2c_read+0x62>
     bdc:	6825      	ldr	r5, [r4, #0]
     bde:	0728      	lsls	r0, r5, #28
     be0:	d5fa      	bpl.n	bd8 <i2c_read+0x58>
     be2:	6861      	ldr	r1, [r4, #4]
     be4:	2940      	cmp	r1, #64	; 0x40
     be6:	d00e      	beq.n	c06 <Stack_Size+0x6>
     be8:	2310      	movs	r3, #16
     bea:	2208      	movs	r2, #8
     bec:	6023      	str	r3, [r4, #0]
     bee:	4b36      	ldr	r3, [pc, #216]	; (cc8 <Stack_Size+0xc8>)
     bf0:	61a2      	str	r2, [r4, #24]
     bf2:	e001      	b.n	bf8 <i2c_read+0x78>
     bf4:	3b01      	subs	r3, #1
     bf6:	d002      	beq.n	bfe <i2c_read+0x7e>
     bf8:	6822      	ldr	r2, [r4, #0]
     bfa:	06d6      	lsls	r6, r2, #27
     bfc:	d4fa      	bmi.n	bf4 <i2c_read+0x74>
     bfe:	f04f 30ff 	mov.w	r0, #4294967295
     c02:	e8bd 83f0 	ldmia.w	sp!, {r4, r5, r6, r7, r8, r9, pc}
     c06:	1e58      	subs	r0, r3, #1
     c08:	2800      	cmp	r0, #0
     c0a:	dd59      	ble.n	cc0 <Stack_Size+0xc0>
     c0c:	4684      	mov	r12, r0
     c0e:	f102 3eff 	add.w	lr, r2, #4294967295
     c12:	2600      	movs	r6, #0
     c14:	f04f 0904 	mov.w	r9, #4
     c18:	f04f 0808 	mov.w	r8, #8
     c1c:	f8c4 9000 	str.w	r9, [r4]
     c20:	4929      	ldr	r1, [pc, #164]	; (cc8 <Stack_Size+0xc8>)
     c22:	f8c4 8018 	str.w	r8, [r4, #24]
     c26:	e001      	b.n	c2c <Stack_Size+0x2c>
     c28:	3901      	subs	r1, #1
     c2a:	d002      	beq.n	c32 <Stack_Size+0x32>
     c2c:	6825      	ldr	r5, [r4, #0]
     c2e:	072d      	lsls	r5, r5, #28
     c30:	d5fa      	bpl.n	c28 <Stack_Size+0x28>
     c32:	68a5      	ldr	r5, [r4, #8]
     c34:	6861      	ldr	r1, [r4, #4]
     c36:	2950      	cmp	r1, #80	; 0x50
     c38:	d121      	bne.n	c7e <Stack_Size+0x7e>
     c3a:	3601      	adds	r6, #1
     c3c:	f80e 5f01 	strb.w	r5, [lr, #1]!
     c40:	4286      	cmp	r6, r0
     c42:	683c      	ldr	r4, [r7, #0]
     c44:	d1ea      	bne.n	c1c <Stack_Size+0x1c>
     c46:	2108      	movs	r1, #8
     c48:	2504      	movs	r5, #4
     c4a:	61a5      	str	r5, [r4, #24]
     c4c:	61a1      	str	r1, [r4, #24]
     c4e:	491e      	ldr	r1, [pc, #120]	; (cc8 <Stack_Size+0xc8>)
     c50:	e001      	b.n	c56 <Stack_Size+0x56>
     c52:	3901      	subs	r1, #1
     c54:	d002      	beq.n	c5c <Stack_Size+0x5c>
     c56:	6825      	ldr	r5, [r4, #0]
     c58:	072e      	lsls	r6, r5, #28
     c5a:	d5fa      	bpl.n	c52 <Stack_Size+0x52>
     c5c:	68a5      	ldr	r5, [r4, #8]
     c5e:	6861      	ldr	r1, [r4, #4]
     c60:	2958      	cmp	r1, #88	; 0x58
     c62:	d01a      	beq.n	c9a <Stack_Size+0x9a>
     c64:	2310      	movs	r3, #16
     c66:	2208      	movs	r2, #8
     c68:	6023      	str	r3, [r4, #0]
     c6a:	4b17      	ldr	r3, [pc, #92]	; (cc8 <Stack_Size+0xc8>)
     c6c:	61a2      	str	r2, [r4, #24]
     c6e:	e001      	b.n	c74 <Stack_Size+0x74>
     c70:	3b01      	subs	r3, #1
     c72:	d010      	beq.n	c96 <Stack_Size+0x96>
     c74:	6822      	ldr	r2, [r4, #0]
     c76:	06d5      	lsls	r5, r2, #27
     c78:	d4fa      	bmi.n	c70 <Stack_Size+0x70>
     c7a:	e8bd 83f0 	ldmia.w	sp!, {r4, r5, r6, r7, r8, r9, pc}
     c7e:	2310      	movs	r3, #16
     c80:	2208      	movs	r2, #8
     c82:	6023      	str	r3, [r4, #0]
     c84:	4b10      	ldr	r3, [pc, #64]	; (cc8 <Stack_Size+0xc8>)
     c86:	61a2      	str	r2, [r4, #24]
     c88:	e001      	b.n	c8e <Stack_Size+0x8e>
     c8a:	3b01      	subs	r3, #1
     c8c:	d002      	beq.n	c94 <Stack_Size+0x94>
     c8e:	6822      	ldr	r2, [r4, #0]
     c90:	06d7      	lsls	r7, r2, #27
     c92:	d4fa      	bmi.n	c8a <Stack_Size+0x8a>
     c94:	4630      	mov	r0, r6
     c96:	e8bd 83f0 	ldmia.w	sp!, {r4, r5, r6, r7, r8, r9, pc}
     c9a:	f802 500c 	strb.w	r5, [r2, r12]
     c9e:	9a07      	ldr	r2, [sp, #28]
     ca0:	b15a      	cbz	r2, cba <Stack_Size+0xba>
     ca2:	6838      	ldr	r0, [r7, #0]
     ca4:	2210      	movs	r2, #16
     ca6:	2108      	movs	r1, #8
     ca8:	6002      	str	r2, [r0, #0]
     caa:	4a07      	ldr	r2, [pc, #28]	; (cc8 <Stack_Size+0xc8>)
     cac:	6181      	str	r1, [r0, #24]
     cae:	e001      	b.n	cb4 <Stack_Size+0xb4>
     cb0:	3a01      	subs	r2, #1
     cb2:	d002      	beq.n	cba <Stack_Size+0xba>
     cb4:	6801      	ldr	r1, [r0, #0]
     cb6:	06c9      	lsls	r1, r1, #27
     cb8:	d4fa      	bmi.n	cb0 <Stack_Size+0xb0>
     cba:	4618      	mov	r0, r3
     cbc:	e8bd 83f0 	ldmia.w	sp!, {r4, r5, r6, r7, r8, r9, pc}
     cc0:	f04f 0c00 	mov.w	r12, #0
     cc4:	e7bf      	b.n	c46 <Stack_Size+0x46>
     cc6:	bf00      	nop
     cc8:	000186a1 	.word	0x000186a1

00000ccc <i2c_write>:
     ccc:	b470      	push	{r4, r5, r6}
     cce:	6804      	ldr	r4, [r0, #0]
     cd0:	253c      	movs	r5, #60	; 0x3c
     cd2:	2024      	movs	r0, #36	; 0x24
     cd4:	61a5      	str	r5, [r4, #24]
     cd6:	4d36      	ldr	r5, [pc, #216]	; (db0 <i2c_write+0xe4>)
     cd8:	6020      	str	r0, [r4, #0]
     cda:	e001      	b.n	ce0 <i2c_write+0x14>
     cdc:	3d01      	subs	r5, #1
     cde:	d002      	beq.n	ce6 <i2c_write+0x1a>
     ce0:	6826      	ldr	r6, [r4, #0]
     ce2:	0730      	lsls	r0, r6, #28
     ce4:	d5fa      	bpl.n	cdc <i2c_write+0x10>
     ce6:	6860      	ldr	r0, [r4, #4]
     ce8:	2520      	movs	r5, #32
     cea:	2810      	cmp	r0, #16
     cec:	61a5      	str	r5, [r4, #24]
     cee:	d010      	beq.n	d12 <i2c_write+0x46>
     cf0:	2808      	cmp	r0, #8
     cf2:	d00e      	beq.n	d12 <i2c_write+0x46>
     cf4:	2310      	movs	r3, #16
     cf6:	2208      	movs	r2, #8
     cf8:	6023      	str	r3, [r4, #0]
     cfa:	4b2d      	ldr	r3, [pc, #180]	; (db0 <i2c_write+0xe4>)
     cfc:	61a2      	str	r2, [r4, #24]
     cfe:	e001      	b.n	d04 <i2c_write+0x38>
     d00:	3b01      	subs	r3, #1
     d02:	d002      	beq.n	d0a <i2c_write+0x3e>
     d04:	6822      	ldr	r2, [r4, #0]
     d06:	06d6      	lsls	r6, r2, #27
     d08:	d4fa      	bmi.n	d00 <i2c_write+0x34>
     d0a:	f06f 0001 	mvn.w	r0, #1
     d0e:	bc70      	pop	{r4, r5, r6}
     d10:	4770      	bx	lr
     d12:	f001 01fe 	and.w	r1, r1, #254	; 0xfe
     d16:	2008      	movs	r0, #8
     d18:	60a1      	str	r1, [r4, #8]
     d1a:	4925      	ldr	r1, [pc, #148]	; (db0 <i2c_write+0xe4>)
     d1c:	61a0      	str	r0, [r4, #24]
     d1e:	e001      	b.n	d24 <i2c_write+0x58>
     d20:	3901      	subs	r1, #1
     d22:	d002      	beq.n	d2a <i2c_write+0x5e>
     d24:	6825      	ldr	r5, [r4, #0]
     d26:	072d      	lsls	r5, r5, #28
     d28:	d5fa      	bpl.n	d20 <i2c_write+0x54>
     d2a:	6861      	ldr	r1, [r4, #4]
     d2c:	2918      	cmp	r1, #24
     d2e:	d00e      	beq.n	d4e <i2c_write+0x82>
     d30:	2310      	movs	r3, #16
     d32:	2208      	movs	r2, #8
     d34:	6023      	str	r3, [r4, #0]
     d36:	4b1e      	ldr	r3, [pc, #120]	; (db0 <i2c_write+0xe4>)
     d38:	61a2      	str	r2, [r4, #24]
     d3a:	e001      	b.n	d40 <i2c_write+0x74>
     d3c:	3b01      	subs	r3, #1
     d3e:	d002      	beq.n	d46 <i2c_write+0x7a>
     d40:	6822      	ldr	r2, [r4, #0]
     d42:	06d0      	lsls	r0, r2, #27
     d44:	d4fa      	bmi.n	d3c <i2c_write+0x70>
     d46:	f04f 30ff 	mov.w	r0, #4294967295
     d4a:	bc70      	pop	{r4, r5, r6}
     d4c:	4770      	bx	lr
     d4e:	2b00      	cmp	r3, #0
     d50:	dd13      	ble.n	d7a <i2c_write+0xae>
     d52:	1e55      	subs	r5, r2, #1
     d54:	2000      	movs	r0, #0
     d56:	2608      	movs	r6, #8
     d58:	f815 1f01 	ldrb.w	r1, [r5, #1]!
     d5c:	4a14      	ldr	r2, [pc, #80]	; (db0 <i2c_write+0xe4>)
     d5e:	60a1      	str	r1, [r4, #8]
     d60:	61a6      	str	r6, [r4, #24]
     d62:	e001      	b.n	d68 <i2c_write+0x9c>
     d64:	3a01      	subs	r2, #1
     d66:	d002      	beq.n	d6e <i2c_write+0xa2>
     d68:	6821      	ldr	r1, [r4, #0]
     d6a:	0709      	lsls	r1, r1, #28
     d6c:	d5fa      	bpl.n	d64 <i2c_write+0x98>
     d6e:	6862      	ldr	r2, [r4, #4]
     d70:	2a28      	cmp	r2, #40	; 0x28
     d72:	d111      	bne.n	d98 <i2c_write+0xcc>
     d74:	3001      	adds	r0, #1
     d76:	4283      	cmp	r3, r0
     d78:	d1ee      	bne.n	d58 <i2c_write+0x8c>
     d7a:	9a03      	ldr	r2, [sp, #12]
     d7c:	b152      	cbz	r2, d94 <i2c_write+0xc8>
     d7e:	2210      	movs	r2, #16
     d80:	2108      	movs	r1, #8
     d82:	6022      	str	r2, [r4, #0]
     d84:	4a0a      	ldr	r2, [pc, #40]	; (db0 <i2c_write+0xe4>)
     d86:	61a1      	str	r1, [r4, #24]
     d88:	e001      	b.n	d8e <i2c_write+0xc2>
     d8a:	3a01      	subs	r2, #1
     d8c:	d002      	beq.n	d94 <i2c_write+0xc8>
     d8e:	6821      	ldr	r1, [r4, #0]
     d90:	06c9      	lsls	r1, r1, #27
     d92:	d4fa      	bmi.n	d8a <i2c_write+0xbe>
     d94:	4618      	mov	r0, r3
     d96:	e7ba      	b.n	d0e <i2c_write+0x42>
     d98:	2310      	movs	r3, #16
     d9a:	2208      	movs	r2, #8
     d9c:	6023      	str	r3, [r4, #0]
     d9e:	4b04      	ldr	r3, [pc, #16]	; (db0 <i2c_write+0xe4>)
     da0:	61a2      	str	r2, [r4, #24]
     da2:	e001      	b.n	da8 <i2c_write+0xdc>
     da4:	3b01      	subs	r3, #1
     da6:	d0b2      	beq.n	d0e <i2c_write+0x42>
     da8:	6822      	ldr	r2, [r4, #0]
     daa:	06d5      	lsls	r5, r2, #27
     dac:	d4fa      	bmi.n	da4 <i2c_write+0xd8>
     dae:	e7ae      	b.n	d0e <i2c_write+0x42>
     db0:	000186a1 	.word	0x000186a1

00000db4 <pin_function>:
     db4:	f100 4060 	add.w	r0, r0, #3758096384	; 0xe0000000
     db8:	f5a0 201c 	sub.w	r0, r0, #638976	; 0x9c000
     dbc:	0903      	lsrs	r3, r0, #4
     dbe:	009b      	lsls	r3, r3, #2
     dc0:	f103 4380 	add.w	r3, r3, #1073741824	; 0x40000000
     dc4:	f503 3330 	add.w	r3, r3, #180224	; 0x2c000
     dc8:	0040      	lsls	r0, r0, #1
     dca:	b410      	push	{r4}
     dcc:	f000 001e 	and.w	r0, r0, #30
     dd0:	681c      	ldr	r4, [r3, #0]
     dd2:	2203      	movs	r2, #3
     dd4:	4082      	lsls	r2, r0
     dd6:	ea24 0202 	bic.w	r2, r4, r2
     dda:	601a      	str	r2, [r3, #0]
     ddc:	681a      	ldr	r2, [r3, #0]
     dde:	4081      	lsls	r1, r0
     de0:	ea41 0002 	orr.w	r0, r1, r2
     de4:	6018      	str	r0, [r3, #0]
     de6:	bc10      	pop	{r4}
     de8:	4770      	bx	lr
     dea:	bf00      	nop

00000dec <pin_mode>:
     dec:	f100 4060 	add.w	r0, r0, #3758096384	; 0xe0000000
     df0:	f5a0 201c 	sub.w	r0, r0, #638976	; 0x9c000
     df4:	0943      	lsrs	r3, r0, #5
     df6:	009b      	lsls	r3, r3, #2
     df8:	f103 4380 	add.w	r3, r3, #1073741824	; 0x40000000
     dfc:	f503 3330 	add.w	r3, r3, #180224	; 0x2c000
     e00:	b430      	push	{r4, r5}
     e02:	f000 021f 	and.w	r2, r0, #31
     e06:	6e9c      	ldr	r4, [r3, #104]	; 0x68
     e08:	f3c1 0580 	ubfx	r5, r1, #2, #1
     e0c:	fa05 f202 	lsl.w	r2, r5, r2
     e10:	ea24 0402 	bic.w	r4, r4, r2
     e14:	669c      	str	r4, [r3, #104]	; 0x68
     e16:	6e9c      	ldr	r4, [r3, #104]	; 0x68
     e18:	4322      	orrs	r2, r4
     e1a:	669a      	str	r2, [r3, #104]	; 0x68
     e1c:	b99d      	cbnz	r5, e46 <pin_mode+0x5a>
     e1e:	0903      	lsrs	r3, r0, #4
     e20:	009b      	lsls	r3, r3, #2
     e22:	f103 4380 	add.w	r3, r3, #1073741824	; 0x40000000
     e26:	f503 3330 	add.w	r3, r3, #180224	; 0x2c000
     e2a:	0040      	lsls	r0, r0, #1
     e2c:	6c1c      	ldr	r4, [r3, #64]	; 0x40
     e2e:	f000 001e 	and.w	r0, r0, #30
     e32:	2203      	movs	r2, #3
     e34:	4082      	lsls	r2, r0
     e36:	ea24 0202 	bic.w	r2, r4, r2
     e3a:	641a      	str	r2, [r3, #64]	; 0x40
     e3c:	6c1a      	ldr	r2, [r3, #64]	; 0x40
     e3e:	fa01 f000 	lsl.w	r0, r1, r0
     e42:	4310      	orrs	r0, r2
     e44:	6418      	str	r0, [r3, #64]	; 0x40
     e46:	bc30      	pop	{r4, r5}
     e48:	4770      	bx	lr
     e4a:	bf00      	nop

00000e4c <uart2_irq>:
     e4c:	4b15      	ldr	r3, [pc, #84]	; (ea4 <uart2_irq+0x58>)
     e4e:	6899      	ldr	r1, [r3, #8]
     e50:	f3c1 0142 	ubfx	r1, r1, #1, #3
     e54:	2901      	cmp	r1, #1
     e56:	d018      	beq.n	e8a <uart2_irq+0x3e>
     e58:	2902      	cmp	r1, #2
     e5a:	d114      	bne.n	e86 <uart2_irq+0x3a>
     e5c:	4a12      	ldr	r2, [pc, #72]	; (ea8 <uart2_irq+0x5c>)
     e5e:	6f51      	ldr	r1, [r2, #116]	; 0x74
     e60:	3101      	adds	r1, #1
     e62:	d006      	beq.n	e72 <uart2_irq+0x26>
     e64:	f8d2 1080 	ldr.w	r1, [r2, #128]	; 0x80
     e68:	6f90      	ldr	r0, [r2, #120]	; 0x78
     e6a:	6008      	str	r0, [r1, #0]
     e6c:	f892 10a6 	ldrb.w	r1, [r2, #166]	; 0xa6
     e70:	b189      	cbz	r1, e96 <uart2_irq+0x4a>
     e72:	6f10      	ldr	r0, [r2, #112]	; 0x70
     e74:	4b0c      	ldr	r3, [pc, #48]	; (ea8 <uart2_irq+0x5c>)
     e76:	b138      	cbz	r0, e88 <uart2_irq+0x3c>
     e78:	f893 30a6 	ldrb.w	r3, [r3, #166]	; 0xa6
     e7c:	b123      	cbz	r3, e88 <uart2_irq+0x3c>
     e7e:	4b0b      	ldr	r3, [pc, #44]	; (eac <uart2_irq+0x60>)
     e80:	2100      	movs	r1, #0
     e82:	681b      	ldr	r3, [r3, #0]
     e84:	4718      	bx	r3
     e86:	4770      	bx	lr
     e88:	4770      	bx	lr
     e8a:	4b07      	ldr	r3, [pc, #28]	; (ea8 <uart2_irq+0x5c>)
     e8c:	6f18      	ldr	r0, [r3, #112]	; 0x70
     e8e:	b138      	cbz	r0, ea0 <uart2_irq+0x54>
     e90:	4b06      	ldr	r3, [pc, #24]	; (eac <uart2_irq+0x60>)
     e92:	681b      	ldr	r3, [r3, #0]
     e94:	4718      	bx	r3
     e96:	6859      	ldr	r1, [r3, #4]
     e98:	f021 0101 	bic.w	r1, r1, #1
     e9c:	6059      	str	r1, [r3, #4]
     e9e:	e7e8      	b.n	e72 <uart2_irq+0x26>
     ea0:	4770      	bx	lr
     ea2:	bf00      	nop
     ea4:	40098000 	.word	0x40098000
     ea8:	10000240 	.word	0x10000240
     eac:	1000023c 	.word	0x1000023c

00000eb0 <serial_irq_set_internal>:
     eb0:	b5f8      	push	{r3, r4, r5, r6, r7, lr}
     eb2:	4c29      	ldr	r4, [pc, #164]	; (f58 <serial_irq_set_internal+0xa8>)
     eb4:	6803      	ldr	r3, [r0, #0]
     eb6:	42a3      	cmp	r3, r4
     eb8:	d047      	beq.n	f4a <serial_irq_set_internal+0x9a>
     eba:	dd3f      	ble.n	f3c <serial_irq_set_internal+0x8c>
     ebc:	4c27      	ldr	r4, [pc, #156]	; (f5c <serial_irq_set_internal+0xac>)
     ebe:	42a3      	cmp	r3, r4
     ec0:	d029      	beq.n	f16 <serial_irq_set_internal+0x66>
     ec2:	f504 4480 	add.w	r4, r4, #16384	; 0x4000
     ec6:	42a3      	cmp	r3, r4
     ec8:	d142      	bne.n	f50 <serial_irq_set_internal+0xa0>
     eca:	4d25      	ldr	r5, [pc, #148]	; (f60 <serial_irq_set_internal+0xb0>)
     ecc:	2608      	movs	r6, #8
     ece:	bb32      	cbnz	r2, f1e <serial_irq_set_internal+0x6e>
     ed0:	2901      	cmp	r1, #1
     ed2:	d00b      	beq.n	eec <serial_irq_set_internal+0x3c>
     ed4:	6842      	ldr	r2, [r0, #4]
     ed6:	4c23      	ldr	r4, [pc, #140]	; (f64 <serial_irq_set_internal+0xb4>)
     ed8:	ebc2 02c2 	rsb	r2, r2, r2, lsl #3
     edc:	eb04 02c2 	add.w	r2, r4, r2, lsl #3
     ee0:	f892 4036 	ldrb.w	r4, [r2, #54]	; 0x36
     ee4:	f892 2035 	ldrb.w	r2, [r2, #53]	; 0x35
     ee8:	42d4      	cmn	r4, r2
     eea:	d113      	bne.n	f14 <serial_irq_set_internal+0x64>
     eec:	fab1 f281 	clz	r2, r1
     ef0:	685d      	ldr	r5, [r3, #4]
     ef2:	2401      	movs	r4, #1
     ef4:	fa04 f101 	lsl.w	r1, r4, r1
     ef8:	ea25 0101 	bic.w	r1, r5, r1
     efc:	6059      	str	r1, [r3, #4]
     efe:	6803      	ldr	r3, [r0, #0]
     f00:	0952      	lsrs	r2, r2, #5
     f02:	685b      	ldr	r3, [r3, #4]
     f04:	fa04 f202 	lsl.w	r2, r4, r2
     f08:	421a      	tst	r2, r3
     f0a:	d103      	bne.n	f14 <serial_irq_set_internal+0x64>
     f0c:	4b16      	ldr	r3, [pc, #88]	; (f68 <serial_irq_set_internal+0xb8>)
     f0e:	40b4      	lsls	r4, r6
     f10:	f8c3 4080 	str.w	r4, [r3, #128]	; 0x80
     f14:	bdf8      	pop	{r3, r4, r5, r6, r7, pc}
     f16:	4d15      	ldr	r5, [pc, #84]	; (f6c <serial_irq_set_internal+0xbc>)
     f18:	2607      	movs	r6, #7
     f1a:	2a00      	cmp	r2, #0
     f1c:	d0d8      	beq.n	ed0 <serial_irq_set_internal+0x20>
     f1e:	6858      	ldr	r0, [r3, #4]
     f20:	2701      	movs	r7, #1
     f22:	fa07 f201 	lsl.w	r2, r7, r1
     f26:	4302      	orrs	r2, r0
     f28:	b274      	sxtb	r4, r6
     f2a:	605a      	str	r2, [r3, #4]
     f2c:	4629      	mov	r1, r5
     f2e:	4620      	mov	r0, r4
     f30:	f7ff fd12 	bl	958 <NVIC_SetVector>
     f34:	4b0c      	ldr	r3, [pc, #48]	; (f68 <serial_irq_set_internal+0xb8>)
     f36:	40a7      	lsls	r7, r4
     f38:	601f      	str	r7, [r3, #0]
     f3a:	bdf8      	pop	{r3, r4, r5, r6, r7, pc}
     f3c:	f5a4 4480 	sub.w	r4, r4, #16384	; 0x4000
     f40:	42a3      	cmp	r3, r4
     f42:	d105      	bne.n	f50 <serial_irq_set_internal+0xa0>
     f44:	4d0a      	ldr	r5, [pc, #40]	; (f70 <serial_irq_set_internal+0xc0>)
     f46:	2605      	movs	r6, #5
     f48:	e7c1      	b.n	ece <serial_irq_set_internal+0x1e>
     f4a:	4d0a      	ldr	r5, [pc, #40]	; (f74 <serial_irq_set_internal+0xc4>)
     f4c:	2606      	movs	r6, #6
     f4e:	e7be      	b.n	ece <serial_irq_set_internal+0x1e>
     f50:	2500      	movs	r5, #0
     f52:	462e      	mov	r6, r5
     f54:	e7bb      	b.n	ece <serial_irq_set_internal+0x1e>
     f56:	bf00      	nop
     f58:	40010000 	.word	0x40010000
     f5c:	40098000 	.word	0x40098000
     f60:	00000f79 	.word	0x00000f79
     f64:	10000240 	.word	0x10000240
     f68:	e000e100 	.word	0xe000e100
     f6c:	00000e4d 	.word	0x00000e4d
     f70:	00000fe5 	.word	0x00000fe5
     f74:	00001045 	.word	0x00001045

00000f78 <uart3_irq>:
     f78:	4b17      	ldr	r3, [pc, #92]	; (fd8 <uart3_irq+0x60>)
     f7a:	6899      	ldr	r1, [r3, #8]
     f7c:	f3c1 0142 	ubfx	r1, r1, #1, #3
     f80:	2901      	cmp	r1, #1
     f82:	d01b      	beq.n	fbc <uart3_irq+0x44>
     f84:	2902      	cmp	r1, #2
     f86:	d117      	bne.n	fb8 <uart3_irq+0x40>
     f88:	4a14      	ldr	r2, [pc, #80]	; (fdc <uart3_irq+0x64>)
     f8a:	f8d2 10ac 	ldr.w	r1, [r2, #172]	; 0xac
     f8e:	3101      	adds	r1, #1
     f90:	d007      	beq.n	fa2 <uart3_irq+0x2a>
     f92:	f8d2 10b8 	ldr.w	r1, [r2, #184]	; 0xb8
     f96:	f8d2 00b0 	ldr.w	r0, [r2, #176]	; 0xb0
     f9a:	6008      	str	r0, [r1, #0]
     f9c:	f892 10de 	ldrb.w	r1, [r2, #222]	; 0xde
     fa0:	b199      	cbz	r1, fca <uart3_irq+0x52>
     fa2:	f8d2 00a8 	ldr.w	r0, [r2, #168]	; 0xa8
     fa6:	4b0d      	ldr	r3, [pc, #52]	; (fdc <uart3_irq+0x64>)
     fa8:	b138      	cbz	r0, fba <uart3_irq+0x42>
     faa:	f893 30de 	ldrb.w	r3, [r3, #222]	; 0xde
     fae:	b123      	cbz	r3, fba <uart3_irq+0x42>
     fb0:	4b0b      	ldr	r3, [pc, #44]	; (fe0 <uart3_irq+0x68>)
     fb2:	2100      	movs	r1, #0
     fb4:	681b      	ldr	r3, [r3, #0]
     fb6:	4718      	bx	r3
     fb8:	4770      	bx	lr
     fba:	4770      	bx	lr
     fbc:	4b07      	ldr	r3, [pc, #28]	; (fdc <uart3_irq+0x64>)
     fbe:	f8d3 00a8 	ldr.w	r0, [r3, #168]	; 0xa8
     fc2:	b138      	cbz	r0, fd4 <uart3_irq+0x5c>
     fc4:	4b06      	ldr	r3, [pc, #24]	; (fe0 <uart3_irq+0x68>)
     fc6:	681b      	ldr	r3, [r3, #0]
     fc8:	4718      	bx	r3
     fca:	6859      	ldr	r1, [r3, #4]
     fcc:	f021 0101 	bic.w	r1, r1, #1
     fd0:	6059      	str	r1, [r3, #4]
     fd2:	e7e6      	b.n	fa2 <uart3_irq+0x2a>
     fd4:	4770      	bx	lr
     fd6:	bf00      	nop
     fd8:	4009c000 	.word	0x4009c000
     fdc:	10000240 	.word	0x10000240
     fe0:	1000023c 	.word	0x1000023c

00000fe4 <uart0_irq>:
     fe4:	4b14      	ldr	r3, [pc, #80]	; (1038 <uart0_irq+0x54>)
     fe6:	6899      	ldr	r1, [r3, #8]
     fe8:	f3c1 0142 	ubfx	r1, r1, #1, #3
     fec:	2901      	cmp	r1, #1
     fee:	d017      	beq.n	1020 <uart0_irq+0x3c>
     ff0:	2902      	cmp	r1, #2
     ff2:	d113      	bne.n	101c <uart0_irq+0x38>
     ff4:	4a11      	ldr	r2, [pc, #68]	; (103c <uart0_irq+0x58>)
     ff6:	6851      	ldr	r1, [r2, #4]
     ff8:	3101      	adds	r1, #1
     ffa:	d005      	beq.n	1008 <uart0_irq+0x24>
     ffc:	6911      	ldr	r1, [r2, #16]
     ffe:	6890      	ldr	r0, [r2, #8]
    1000:	6008      	str	r0, [r1, #0]
    1002:	f892 1036 	ldrb.w	r1, [r2, #54]	; 0x36
    1006:	b189      	cbz	r1, 102c <uart0_irq+0x48>
    1008:	6810      	ldr	r0, [r2, #0]
    100a:	4b0c      	ldr	r3, [pc, #48]	; (103c <uart0_irq+0x58>)
    100c:	b138      	cbz	r0, 101e <uart0_irq+0x3a>
    100e:	f893 3036 	ldrb.w	r3, [r3, #54]	; 0x36
    1012:	b123      	cbz	r3, 101e <uart0_irq+0x3a>
    1014:	4b0a      	ldr	r3, [pc, #40]	; (1040 <uart0_irq+0x5c>)
    1016:	2100      	movs	r1, #0
    1018:	681b      	ldr	r3, [r3, #0]
    101a:	4718      	bx	r3
    101c:	4770      	bx	lr
    101e:	4770      	bx	lr
    1020:	4b06      	ldr	r3, [pc, #24]	; (103c <uart0_irq+0x58>)
    1022:	6818      	ldr	r0, [r3, #0]
    1024:	b138      	cbz	r0, 1036 <uart0_irq+0x52>
    1026:	4b06      	ldr	r3, [pc, #24]	; (1040 <uart0_irq+0x5c>)
    1028:	681b      	ldr	r3, [r3, #0]
    102a:	4718      	bx	r3
    102c:	6859      	ldr	r1, [r3, #4]
    102e:	f021 0101 	bic.w	r1, r1, #1
    1032:	6059      	str	r1, [r3, #4]
    1034:	e7e8      	b.n	1008 <uart0_irq+0x24>
    1036:	4770      	bx	lr
    1038:	4000c000 	.word	0x4000c000
    103c:	10000240 	.word	0x10000240
    1040:	1000023c 	.word	0x1000023c

00001044 <uart1_irq>:
    1044:	4b14      	ldr	r3, [pc, #80]	; (1098 <uart1_irq+0x54>)
    1046:	6899      	ldr	r1, [r3, #8]
    1048:	f3c1 0142 	ubfx	r1, r1, #1, #3
    104c:	2901      	cmp	r1, #1
    104e:	d017      	beq.n	1080 <uart1_irq+0x3c>
    1050:	2902      	cmp	r1, #2
    1052:	d113      	bne.n	107c <uart1_irq+0x38>
    1054:	4a11      	ldr	r2, [pc, #68]	; (109c <uart1_irq+0x58>)
    1056:	6bd1      	ldr	r1, [r2, #60]	; 0x3c
    1058:	3101      	adds	r1, #1
    105a:	d005      	beq.n	1068 <uart1_irq+0x24>
    105c:	6c91      	ldr	r1, [r2, #72]	; 0x48
    105e:	6c10      	ldr	r0, [r2, #64]	; 0x40
    1060:	6008      	str	r0, [r1, #0]
    1062:	f892 106e 	ldrb.w	r1, [r2, #110]	; 0x6e
    1066:	b189      	cbz	r1, 108c <uart1_irq+0x48>
    1068:	6b90      	ldr	r0, [r2, #56]	; 0x38
    106a:	4b0c      	ldr	r3, [pc, #48]	; (109c <uart1_irq+0x58>)
    106c:	b138      	cbz	r0, 107e <uart1_irq+0x3a>
    106e:	f893 306e 	ldrb.w	r3, [r3, #110]	; 0x6e
    1072:	b123      	cbz	r3, 107e <uart1_irq+0x3a>
    1074:	4b0a      	ldr	r3, [pc, #40]	; (10a0 <uart1_irq+0x5c>)
    1076:	2100      	movs	r1, #0
    1078:	681b      	ldr	r3, [r3, #0]
    107a:	4718      	bx	r3
    107c:	4770      	bx	lr
    107e:	4770      	bx	lr
    1080:	4b06      	ldr	r3, [pc, #24]	; (109c <uart1_irq+0x58>)
    1082:	6b98      	ldr	r0, [r3, #56]	; 0x38
    1084:	b138      	cbz	r0, 1096 <uart1_irq+0x52>
    1086:	4b06      	ldr	r3, [pc, #24]	; (10a0 <uart1_irq+0x5c>)
    1088:	681b      	ldr	r3, [r3, #0]
    108a:	4718      	bx	r3
    108c:	6859      	ldr	r1, [r3, #4]
    108e:	f021 0101 	bic.w	r1, r1, #1
    1092:	6059      	str	r1, [r3, #4]
    1094:	e7e8      	b.n	1068 <uart1_irq+0x24>
    1096:	4770      	bx	lr
    1098:	40010000 	.word	0x40010000
    109c:	10000240 	.word	0x10000240
    10a0:	1000023c 	.word	0x1000023c

000010a4 <serial_baud>:
    10a4:	e92d 4ff0 	stmdb	sp!, {r4, r5, r6, r7, r8, r9, r10, r11, lr}
    10a8:	6802      	ldr	r2, [r0, #0]
    10aa:	4b6e      	ldr	r3, [pc, #440]	; (1264 <serial_baud+0x1c0>)
    10ac:	b089      	sub	sp, #36	; 0x24
    10ae:	429a      	cmp	r2, r3
    10b0:	9007      	str	r0, [sp, #28]
    10b2:	9206      	str	r2, [sp, #24]
    10b4:	f000 80c8 	beq.w	1248 <serial_baud+0x1a4>
    10b8:	f340 80b4 	ble.w	1224 <serial_baud+0x180>
    10bc:	4b6a      	ldr	r3, [pc, #424]	; (1268 <serial_baud+0x1c4>)
    10be:	9806      	ldr	r0, [sp, #24]
    10c0:	4298      	cmp	r0, r3
    10c2:	d072      	beq.n	11aa <serial_baud+0x106>
    10c4:	f503 4380 	add.w	r3, r3, #16384	; 0x4000
    10c8:	4298      	cmp	r0, r3
    10ca:	f040 809d 	bne.w	1208 <serial_baud+0x164>
    10ce:	4b67      	ldr	r3, [pc, #412]	; (126c <serial_baud+0x1c8>)
    10d0:	f8d3 21ac 	ldr.w	r2, [r3, #428]	; 0x1ac
    10d4:	f422 2240 	bic.w	r2, r2, #786432	; 0xc0000
    10d8:	f8c3 21ac 	str.w	r2, [r3, #428]	; 0x1ac
    10dc:	f8d3 21ac 	ldr.w	r2, [r3, #428]	; 0x1ac
    10e0:	f442 2280 	orr.w	r2, r2, #262144	; 0x40000
    10e4:	f8c3 21ac 	str.w	r2, [r3, #428]	; 0x1ac
    10e8:	4a61      	ldr	r2, [pc, #388]	; (1270 <serial_baud+0x1cc>)
    10ea:	010b      	lsls	r3, r1, #4
    10ec:	6812      	ldr	r2, [r2, #0]
    10ee:	fbb2 f0f3 	udiv	r0, r2, r3
    10f2:	fb03 2310 	mls	r3, r3, r0, r2
    10f6:	9203      	str	r2, [sp, #12]
    10f8:	b280      	uxth	r0, r0
    10fa:	2b00      	cmp	r3, #0
    10fc:	f000 8090 	beq.w	1220 <serial_baud+0x17c>
    1100:	9b03      	ldr	r3, [sp, #12]
    1102:	f04f 0801 	mov.w	r8, #1
    1106:	005a      	lsls	r2, r3, #1
    1108:	009c      	lsls	r4, r3, #2
    110a:	4694      	mov	r12, r2
    110c:	46a2      	mov	r10, r4
    110e:	46c3      	mov	r11, r8
    1110:	468e      	mov	lr, r1
    1112:	4699      	mov	r9, r3
    1114:	2300      	movs	r3, #0
    1116:	9205      	str	r2, [sp, #20]
    1118:	9404      	str	r4, [sp, #16]
    111a:	9000      	str	r0, [sp, #0]
    111c:	9102      	str	r1, [sp, #8]
    111e:	9301      	str	r3, [sp, #4]
    1120:	2400      	movs	r4, #0
    1122:	4625      	mov	r5, r4
    1124:	9e02      	ldr	r6, [sp, #8]
    1126:	fa5f f788 	uxtb.w	r7, r8
    112a:	f1bc 0f00 	cmp.w	r12, #0
    112e:	bfb5      	itete	lt
    1130:	fbbc f0f6 	udivlt	r0, r12, r6
    1134:	fbba f0f6 	udivge	r0, r10, r6
    1138:	0900      	lsrlt	r0, r0, #4
    113a:	0940      	lsrge	r0, r0, #5
    113c:	3001      	adds	r0, #1
    113e:	f3c0 004f 	ubfx	r0, r0, #1, #16
    1142:	eb08 0204 	add.w	r2, r8, r4
    1146:	2800      	cmp	r0, #0
    1148:	d03d      	beq.n	11c6 <serial_baud+0x122>
    114a:	b10c      	cbz	r4, 1150 <serial_baud+0xac>
    114c:	2801      	cmp	r0, #1
    114e:	d03b      	beq.n	11c8 <serial_baud+0x124>
    1150:	4603      	mov	r3, r0
    1152:	fb03 f302 	mul.w	r3, r3, r2
    1156:	00db      	lsls	r3, r3, #3
    1158:	fbb9 f3f3 	udiv	r3, r9, r3
    115c:	3301      	adds	r3, #1
    115e:	ebc1 0353 	rsb	r3, r1, r3, lsr #1
    1162:	2b00      	cmp	r3, #0
    1164:	bfb8      	it	lt
    1166:	425b      	neglt	r3, r3
    1168:	4573      	cmp	r3, lr
    116a:	da05      	bge.n	1178 <serial_baud+0xd4>
    116c:	4299      	cmp	r1, r3
    116e:	d030      	beq.n	11d2 <serial_baud+0x12e>
    1170:	469e      	mov	lr, r3
    1172:	46bb      	mov	r11, r7
    1174:	e88d 0021 	stmia.w	sp, {r0, r5}
    1178:	3401      	adds	r4, #1
    117a:	b2e5      	uxtb	r5, r4
    117c:	42af      	cmp	r7, r5
    117e:	440e      	add	r6, r1
    1180:	d8d3      	bhi.n	112a <serial_baud+0x86>
    1182:	9b03      	ldr	r3, [sp, #12]
    1184:	f108 0801 	add.w	r8, r8, #1
    1188:	4499      	add	r9, r3
    118a:	9b05      	ldr	r3, [sp, #20]
    118c:	f1b8 0f10 	cmp.w	r8, #16
    1190:	449c      	add	r12, r3
    1192:	9b04      	ldr	r3, [sp, #16]
    1194:	449a      	add	r10, r3
    1196:	9b02      	ldr	r3, [sp, #8]
    1198:	440b      	add	r3, r1
    119a:	9302      	str	r3, [sp, #8]
    119c:	d1c0      	bne.n	1120 <serial_baud+0x7c>
    119e:	9b01      	ldr	r3, [sp, #4]
    11a0:	9800      	ldr	r0, [sp, #0]
    11a2:	ea43 150b 	orr.w	r5, r3, r11, lsl #4
    11a6:	b2ed      	uxtb	r5, r5
    11a8:	e016      	b.n	11d8 <serial_baud+0x134>
    11aa:	4b30      	ldr	r3, [pc, #192]	; (126c <serial_baud+0x1c8>)
    11ac:	f8d3 21ac 	ldr.w	r2, [r3, #428]	; 0x1ac
    11b0:	f422 3240 	bic.w	r2, r2, #196608	; 0x30000
    11b4:	f8c3 21ac 	str.w	r2, [r3, #428]	; 0x1ac
    11b8:	f8d3 21ac 	ldr.w	r2, [r3, #428]	; 0x1ac
    11bc:	f442 3280 	orr.w	r2, r2, #65536	; 0x10000
    11c0:	f8c3 21ac 	str.w	r2, [r3, #428]	; 0x1ac
    11c4:	e790      	b.n	10e8 <serial_baud+0x44>
    11c6:	b114      	cbz	r4, 11ce <serial_baud+0x12a>
    11c8:	2002      	movs	r0, #2
    11ca:	4603      	mov	r3, r0
    11cc:	e7c1      	b.n	1152 <serial_baud+0xae>
    11ce:	2001      	movs	r0, #1
    11d0:	e7be      	b.n	1150 <serial_baud+0xac>
    11d2:	ea45 1507 	orr.w	r5, r5, r7, lsl #4
    11d6:	b2ed      	uxtb	r5, r5
    11d8:	9906      	ldr	r1, [sp, #24]
    11da:	f3c0 2207 	ubfx	r2, r0, #8, #8
    11de:	7b0b      	ldrb	r3, [r1, #12]
    11e0:	b2c0      	uxtb	r0, r0
    11e2:	f043 0380 	orr.w	r3, r3, #128	; 0x80
    11e6:	730b      	strb	r3, [r1, #12]
    11e8:	9907      	ldr	r1, [sp, #28]
    11ea:	680b      	ldr	r3, [r1, #0]
    11ec:	711a      	strb	r2, [r3, #4]
    11ee:	680b      	ldr	r3, [r1, #0]
    11f0:	7018      	strb	r0, [r3, #0]
    11f2:	680b      	ldr	r3, [r1, #0]
    11f4:	f883 5028 	strb.w	r5, [r3, #40]	; 0x28
    11f8:	680a      	ldr	r2, [r1, #0]
    11fa:	7b13      	ldrb	r3, [r2, #12]
    11fc:	f003 037f 	and.w	r3, r3, #127	; 0x7f
    1200:	7313      	strb	r3, [r2, #12]
    1202:	b009      	add	sp, #36	; 0x24
    1204:	e8bd 8ff0 	ldmia.w	sp!, {r4, r5, r6, r7, r8, r9, r10, r11, pc}
    1208:	4a19      	ldr	r2, [pc, #100]	; (1270 <serial_baud+0x1cc>)
    120a:	010b      	lsls	r3, r1, #4
    120c:	6812      	ldr	r2, [r2, #0]
    120e:	fbb2 f0f3 	udiv	r0, r2, r3
    1212:	fb03 2310 	mls	r3, r3, r0, r2
    1216:	9203      	str	r2, [sp, #12]
    1218:	b280      	uxth	r0, r0
    121a:	2b00      	cmp	r3, #0
    121c:	f47f af70 	bne.w	1100 <serial_baud+0x5c>
    1220:	2510      	movs	r5, #16
    1222:	e7d9      	b.n	11d8 <serial_baud+0x134>
    1224:	f5a3 4380 	sub.w	r3, r3, #16384	; 0x4000
    1228:	429a      	cmp	r2, r3
    122a:	d1ed      	bne.n	1208 <serial_baud+0x164>
    122c:	4b0f      	ldr	r3, [pc, #60]	; (126c <serial_baud+0x1c8>)
    122e:	f8d3 21a8 	ldr.w	r2, [r3, #424]	; 0x1a8
    1232:	f022 02c0 	bic.w	r2, r2, #192	; 0xc0
    1236:	f8c3 21a8 	str.w	r2, [r3, #424]	; 0x1a8
    123a:	f8d3 21a8 	ldr.w	r2, [r3, #424]	; 0x1a8
    123e:	f042 0240 	orr.w	r2, r2, #64	; 0x40
    1242:	f8c3 21a8 	str.w	r2, [r3, #424]	; 0x1a8
    1246:	e74f      	b.n	10e8 <serial_baud+0x44>
    1248:	4b08      	ldr	r3, [pc, #32]	; (126c <serial_baud+0x1c8>)
    124a:	f8d3 21a8 	ldr.w	r2, [r3, #424]	; 0x1a8
    124e:	f422 7240 	bic.w	r2, r2, #768	; 0x300
    1252:	f8c3 21a8 	str.w	r2, [r3, #424]	; 0x1a8
    1256:	f8d3 21a8 	ldr.w	r2, [r3, #424]	; 0x1a8
    125a:	f442 7280 	orr.w	r2, r2, #256	; 0x100
    125e:	f8c3 21a8 	str.w	r2, [r3, #424]	; 0x1a8
    1262:	e741      	b.n	10e8 <serial_baud+0x44>
    1264:	40010000 	.word	0x40010000
    1268:	40098000 	.word	0x40098000
    126c:	400fc000 	.word	0x400fc000
    1270:	100000cc 	.word	0x100000cc

00001274 <serial_irq_handler>:
    1274:	6843      	ldr	r3, [r0, #4]
    1276:	b410      	push	{r4}
    1278:	4804      	ldr	r0, [pc, #16]	; (128c <serial_irq_handler+0x18>)
    127a:	4c05      	ldr	r4, [pc, #20]	; (1290 <serial_irq_handler+0x1c>)
    127c:	ebc3 03c3 	rsb	r3, r3, r3, lsl #3
    1280:	f844 2033 	str.w	r2, [r4, r3, lsl #3]
    1284:	6001      	str	r1, [r0, #0]
    1286:	bc10      	pop	{r4}
    1288:	4770      	bx	lr
    128a:	bf00      	nop
    128c:	1000023c 	.word	0x1000023c
    1290:	10000240 	.word	0x10000240

00001294 <serial_getc>:
    1294:	6802      	ldr	r2, [r0, #0]
    1296:	7d13      	ldrb	r3, [r2, #20]
    1298:	07db      	lsls	r3, r3, #31
    129a:	d5fc      	bpl.n	1296 <serial_getc+0x2>
    129c:	6843      	ldr	r3, [r0, #4]
    129e:	4909      	ldr	r1, [pc, #36]	; (12c4 <serial_getc+0x30>)
    12a0:	ebc3 03c3 	rsb	r3, r3, r3, lsl #3
    12a4:	eb01 03c3 	add.w	r3, r1, r3, lsl #3
    12a8:	6859      	ldr	r1, [r3, #4]
    12aa:	7810      	ldrb	r0, [r2, #0]
    12ac:	3101      	adds	r1, #1
    12ae:	b2c0      	uxtb	r0, r0
    12b0:	d006      	beq.n	12c0 <serial_getc+0x2c>
    12b2:	6959      	ldr	r1, [r3, #20]
    12b4:	689b      	ldr	r3, [r3, #8]
    12b6:	600b      	str	r3, [r1, #0]
    12b8:	6853      	ldr	r3, [r2, #4]
    12ba:	f043 0301 	orr.w	r3, r3, #1
    12be:	6053      	str	r3, [r2, #4]
    12c0:	4770      	bx	lr
    12c2:	bf00      	nop
    12c4:	10000240 	.word	0x10000240

000012c8 <serial_writable>:
    12c8:	6843      	ldr	r3, [r0, #4]
    12ca:	4a15      	ldr	r2, [pc, #84]	; (1320 <serial_writable+0x58>)
    12cc:	ebc3 03c3 	rsb	r3, r3, r3, lsl #3
    12d0:	00db      	lsls	r3, r3, #3
    12d2:	18d1      	adds	r1, r2, r3
    12d4:	b410      	push	{r4}
    12d6:	69cc      	ldr	r4, [r1, #28]
    12d8:	3401      	adds	r4, #1
    12da:	d00f      	beq.n	12fc <serial_writable+0x34>
    12dc:	460b      	mov	r3, r1
    12de:	6b0a      	ldr	r2, [r1, #48]	; 0x30
    12e0:	331c      	adds	r3, #28
    12e2:	685b      	ldr	r3, [r3, #4]
    12e4:	6812      	ldr	r2, [r2, #0]
    12e6:	421a      	tst	r2, r3
    12e8:	d105      	bne.n	12f6 <serial_writable+0x2e>
    12ea:	6803      	ldr	r3, [r0, #0]
    12ec:	bc10      	pop	{r4}
    12ee:	7d18      	ldrb	r0, [r3, #20]
    12f0:	f3c0 1080 	ubfx	r0, r0, #6, #1
    12f4:	4770      	bx	lr
    12f6:	2000      	movs	r0, #0
    12f8:	bc10      	pop	{r4}
    12fa:	4770      	bx	lr
    12fc:	6803      	ldr	r3, [r0, #0]
    12fe:	7d1b      	ldrb	r3, [r3, #20]
    1300:	069b      	lsls	r3, r3, #26
    1302:	d407      	bmi.n	1314 <serial_writable+0x4c>
    1304:	f891 0034 	ldrb.w	r0, [r1, #52]	; 0x34
    1308:	bc10      	pop	{r4}
    130a:	280f      	cmp	r0, #15
    130c:	bf8c      	ite	hi
    130e:	2000      	movhi	r0, #0
    1310:	2001      	movls	r0, #1
    1312:	4770      	bx	lr
    1314:	2300      	movs	r3, #0
    1316:	f881 3034 	strb.w	r3, [r1, #52]	; 0x34
    131a:	2001      	movs	r0, #1
    131c:	bc10      	pop	{r4}
    131e:	4770      	bx	lr
    1320:	10000240 	.word	0x10000240

00001324 <serial_putc>:
    1324:	b538      	push	{r3, r4, r5, lr}
    1326:	4604      	mov	r4, r0
    1328:	460d      	mov	r5, r1
    132a:	4620      	mov	r0, r4
    132c:	f7ff ffcc 	bl	12c8 <serial_writable>
    1330:	2800      	cmp	r0, #0
    1332:	d0fa      	beq.n	132a <serial_putc+0x6>
    1334:	6823      	ldr	r3, [r4, #0]
    1336:	b2ed      	uxtb	r5, r5
    1338:	701d      	strb	r5, [r3, #0]
    133a:	6863      	ldr	r3, [r4, #4]
    133c:	4a05      	ldr	r2, [pc, #20]	; (1354 <serial_putc+0x30>)
    133e:	ebc3 03c3 	rsb	r3, r3, r3, lsl #3
    1342:	eb02 03c3 	add.w	r3, r2, r3, lsl #3
    1346:	f893 2034 	ldrb.w	r2, [r3, #52]	; 0x34
    134a:	3201      	adds	r2, #1
    134c:	f883 2034 	strb.w	r2, [r3, #52]	; 0x34
    1350:	bd38      	pop	{r3, r4, r5, pc}
    1352:	bf00      	nop
    1354:	10000240 	.word	0x10000240

00001358 <serial_set_flow_control>:
    1358:	e92d 4ff0 	stmdb	sp!, {r4, r5, r6, r7, r8, r9, r10, r11, lr}
    135c:	4605      	mov	r5, r0
    135e:	4844      	ldr	r0, [pc, #272]	; (1470 <serial_set_flow_control+0x118>)
    1360:	682c      	ldr	r4, [r5, #0]
    1362:	b083      	sub	sp, #12
    1364:	4284      	cmp	r4, r0
    1366:	460f      	mov	r7, r1
    1368:	4691      	mov	r9, r2
    136a:	469a      	mov	r10, r3
    136c:	d01d      	beq.n	13aa <serial_set_flow_control+0x52>
    136e:	686e      	ldr	r6, [r5, #4]
    1370:	2400      	movs	r4, #0
    1372:	4632      	mov	r2, r6
    1374:	f8df b104 	ldr.w	r11, [pc, #260]	; 147c <serial_set_flow_control+0x124>
    1378:	ea4f 08c6 	mov.w	r8, r6, lsl #3
    137c:	ebc2 01c2 	rsb	r1, r2, r2, lsl #3
    1380:	ebc6 0008 	rsb	r0, r6, r8
    1384:	eb0b 00c0 	add.w	r0, r11, r0, lsl #3
    1388:	2200      	movs	r2, #0
    138a:	eb0b 01c1 	add.w	r1, r11, r1, lsl #3
    138e:	f04f 33ff 	mov.w	r3, #4294967295
    1392:	f881 2035 	strb.w	r2, [r1, #53]	; 0x35
    1396:	61c3      	str	r3, [r0, #28]
    1398:	6043      	str	r3, [r0, #4]
    139a:	4611      	mov	r1, r2
    139c:	4628      	mov	r0, r5
    139e:	f7ff fd87 	bl	eb0 <serial_irq_set_internal>
    13a2:	b94f      	cbnz	r7, 13b8 <serial_set_flow_control+0x60>
    13a4:	b003      	add	sp, #12
    13a6:	e8bd 8ff0 	ldmia.w	sp!, {r4, r5, r6, r7, r8, r9, r10, r11, pc}
    13aa:	7c23      	ldrb	r3, [r4, #16]
    13ac:	686e      	ldr	r6, [r5, #4]
    13ae:	f003 033f 	and.w	r3, r3, #63	; 0x3f
    13b2:	7423      	strb	r3, [r4, #16]
    13b4:	686a      	ldr	r2, [r5, #4]
    13b6:	e7dd      	b.n	1374 <serial_set_flow_control+0x1c>
    13b8:	492e      	ldr	r1, [pc, #184]	; (1474 <serial_set_flow_control+0x11c>)
    13ba:	4648      	mov	r0, r9
    13bc:	f7ff fa44 	bl	848 <pinmap_find_peripheral>
    13c0:	492d      	ldr	r1, [pc, #180]	; (1478 <serial_set_flow_control+0x120>)
    13c2:	9001      	str	r0, [sp, #4]
    13c4:	4650      	mov	r0, r10
    13c6:	f7ff fa3f 	bl	848 <pinmap_find_peripheral>
    13ca:	1eba      	subs	r2, r7, #2
    13cc:	2a01      	cmp	r2, #1
    13ce:	d930      	bls.n	1432 <serial_set_flow_control+0xda>
    13d0:	2f01      	cmp	r7, #1
    13d2:	d1e7      	bne.n	13a4 <serial_set_flow_control+0x4c>
    13d4:	f1b9 3fff 	cmp.w	r9, #4294967295
    13d8:	d0e4      	beq.n	13a4 <serial_set_flow_control+0x4c>
    13da:	4a25      	ldr	r2, [pc, #148]	; (1470 <serial_set_flow_control+0x118>)
    13dc:	9b01      	ldr	r3, [sp, #4]
    13de:	6829      	ldr	r1, [r5, #0]
    13e0:	2007      	movs	r0, #7
    13e2:	4293      	cmp	r3, r2
    13e4:	7208      	strb	r0, [r1, #8]
    13e6:	d10b      	bne.n	1400 <serial_set_flow_control+0xa8>
    13e8:	b154      	cbz	r4, 1400 <serial_set_flow_control+0xa8>
    13ea:	4648      	mov	r0, r9
    13ec:	7c23      	ldrb	r3, [r4, #16]
    13ee:	4921      	ldr	r1, [pc, #132]	; (1474 <serial_set_flow_control+0x11c>)
    13f0:	f043 0340 	orr.w	r3, r3, #64	; 0x40
    13f4:	7423      	strb	r3, [r4, #16]
    13f6:	b003      	add	sp, #12
    13f8:	e8bd 4ff0 	ldmia.w	sp!, {r4, r5, r6, r7, r8, r9, r10, r11, lr}
    13fc:	f7ff b9ec 	b.w	7d8 <pinmap_pinout>
    1400:	ebc6 0608 	rsb	r6, r6, r8
    1404:	eb0b 00c6 	add.w	r0, r11, r6, lsl #3
    1408:	4649      	mov	r1, r9
    140a:	3004      	adds	r0, #4
    140c:	2200      	movs	r2, #0
    140e:	f7ff f9c5 	bl	79c <gpio_init_out_ex>
    1412:	686a      	ldr	r2, [r5, #4]
    1414:	2401      	movs	r4, #1
    1416:	ebc2 02c2 	rsb	r2, r2, r2, lsl #3
    141a:	eb0b 03c2 	add.w	r3, r11, r2, lsl #3
    141e:	4628      	mov	r0, r5
    1420:	4622      	mov	r2, r4
    1422:	2100      	movs	r1, #0
    1424:	f883 4035 	strb.w	r4, [r3, #53]	; 0x35
    1428:	b003      	add	sp, #12
    142a:	e8bd 4ff0 	ldmia.w	sp!, {r4, r5, r6, r7, r8, r9, r10, r11, lr}
    142e:	f7ff bd3f 	b.w	eb0 <serial_irq_set_internal>
    1432:	f1ba 3fff 	cmp.w	r10, #4294967295
    1436:	d00a      	beq.n	144e <serial_set_flow_control+0xf6>
    1438:	4a0d      	ldr	r2, [pc, #52]	; (1470 <serial_set_flow_control+0x118>)
    143a:	4290      	cmp	r0, r2
    143c:	d00d      	beq.n	145a <serial_set_flow_control+0x102>
    143e:	ebc6 0008 	rsb	r0, r6, r8
    1442:	eb0b 00c0 	add.w	r0, r11, r0, lsl #3
    1446:	4651      	mov	r1, r10
    1448:	301c      	adds	r0, #28
    144a:	f7ff f97f 	bl	74c <gpio_init_in>
    144e:	2f03      	cmp	r7, #3
    1450:	d1a8      	bne.n	13a4 <serial_set_flow_control+0x4c>
    1452:	f1b9 3fff 	cmp.w	r9, #4294967295
    1456:	d1c0      	bne.n	13da <serial_set_flow_control+0x82>
    1458:	e7a4      	b.n	13a4 <serial_set_flow_control+0x4c>
    145a:	2c00      	cmp	r4, #0
    145c:	d0ef      	beq.n	143e <serial_set_flow_control+0xe6>
    145e:	7c22      	ldrb	r2, [r4, #16]
    1460:	4650      	mov	r0, r10
    1462:	f042 0280 	orr.w	r2, r2, #128	; 0x80
    1466:	7422      	strb	r2, [r4, #16]
    1468:	4903      	ldr	r1, [pc, #12]	; (1478 <serial_set_flow_control+0x120>)
    146a:	f7ff f9b5 	bl	7d8 <pinmap_pinout>
    146e:	e7ee      	b.n	144e <serial_set_flow_control+0xf6>
    1470:	40010000 	.word	0x40010000
    1474:	00004c1c 	.word	0x00004c1c
    1478:	00004d18 	.word	0x00004d18
    147c:	10000240 	.word	0x10000240

00001480 <serial_init>:
    1480:	e92d 41f0 	stmdb	sp!, {r4, r5, r6, r7, r8, lr}
    1484:	460f      	mov	r7, r1
    1486:	4605      	mov	r5, r0
    1488:	4959      	ldr	r1, [pc, #356]	; (15f0 <serial_init+0x170>)
    148a:	4638      	mov	r0, r7
    148c:	4616      	mov	r6, r2
    148e:	f7ff f9eb 	bl	868 <pinmap_peripheral>
    1492:	4958      	ldr	r1, [pc, #352]	; (15f4 <serial_init+0x174>)
    1494:	4604      	mov	r4, r0
    1496:	4630      	mov	r0, r6
    1498:	f7ff f9e6 	bl	868 <pinmap_peripheral>
    149c:	4601      	mov	r1, r0
    149e:	4620      	mov	r0, r4
    14a0:	f7ff f9c0 	bl	824 <pinmap_merge>
    14a4:	4b54      	ldr	r3, [pc, #336]	; (15f8 <serial_init+0x178>)
    14a6:	4604      	mov	r4, r0
    14a8:	4298      	cmp	r0, r3
    14aa:	6028      	str	r0, [r5, #0]
    14ac:	d07f      	beq.n	15ae <serial_init+0x12e>
    14ae:	d96f      	bls.n	1590 <serial_init+0x110>
    14b0:	4b52      	ldr	r3, [pc, #328]	; (15fc <serial_init+0x17c>)
    14b2:	4298      	cmp	r0, r3
    14b4:	d04b      	beq.n	154e <serial_init+0xce>
    14b6:	f503 4380 	add.w	r3, r3, #16384	; 0x4000
    14ba:	4298      	cmp	r0, r3
    14bc:	d106      	bne.n	14cc <serial_init+0x4c>
    14be:	4a50      	ldr	r2, [pc, #320]	; (1600 <serial_init+0x180>)
    14c0:	f8d2 30c4 	ldr.w	r3, [r2, #196]	; 0xc4
    14c4:	f043 7300 	orr.w	r3, r3, #33554432	; 0x2000000
    14c8:	f8c2 30c4 	str.w	r3, [r2, #196]	; 0xc4
    14cc:	2301      	movs	r3, #1
    14ce:	7223      	strb	r3, [r4, #8]
    14d0:	682b      	ldr	r3, [r5, #0]
    14d2:	f04f 0800 	mov.w	r8, #0
    14d6:	f8c3 8004 	str.w	r8, [r3, #4]
    14da:	f44f 5116 	mov.w	r1, #9600	; 0x2580
    14de:	4628      	mov	r0, r5
    14e0:	f7ff fde0 	bl	10a4 <serial_baud>
    14e4:	682b      	ldr	r3, [r5, #0]
    14e6:	2203      	movs	r2, #3
    14e8:	731a      	strb	r2, [r3, #12]
    14ea:	4941      	ldr	r1, [pc, #260]	; (15f0 <serial_init+0x170>)
    14ec:	4638      	mov	r0, r7
    14ee:	f7ff f973 	bl	7d8 <pinmap_pinout>
    14f2:	4940      	ldr	r1, [pc, #256]	; (15f4 <serial_init+0x174>)
    14f4:	4630      	mov	r0, r6
    14f6:	f7ff f96f 	bl	7d8 <pinmap_pinout>
    14fa:	1c7a      	adds	r2, r7, #1
    14fc:	d003      	beq.n	1506 <serial_init+0x86>
    14fe:	4641      	mov	r1, r8
    1500:	4638      	mov	r0, r7
    1502:	f7ff fc73 	bl	dec <pin_mode>
    1506:	1c73      	adds	r3, r6, #1
    1508:	d003      	beq.n	1512 <serial_init+0x92>
    150a:	4630      	mov	r0, r6
    150c:	2100      	movs	r1, #0
    150e:	f7ff fc6d 	bl	dec <pin_mode>
    1512:	4b39      	ldr	r3, [pc, #228]	; (15f8 <serial_init+0x178>)
    1514:	429c      	cmp	r4, r3
    1516:	d047      	beq.n	15a8 <serial_init+0x128>
    1518:	d921      	bls.n	155e <serial_init+0xde>
    151a:	4b38      	ldr	r3, [pc, #224]	; (15fc <serial_init+0x17c>)
    151c:	429c      	cmp	r4, r3
    151e:	d063      	beq.n	15e8 <serial_init+0x168>
    1520:	f503 4380 	add.w	r3, r3, #16384	; 0x4000
    1524:	429c      	cmp	r4, r3
    1526:	d14a      	bne.n	15be <serial_init+0x13e>
    1528:	2303      	movs	r3, #3
    152a:	606b      	str	r3, [r5, #4]
    152c:	4c35      	ldr	r4, [pc, #212]	; (1604 <serial_init+0x184>)
    152e:	ebc3 03c3 	rsb	r3, r3, r3, lsl #3
    1532:	f04f 36ff 	mov.w	r6, #4294967295
    1536:	eb04 04c3 	add.w	r4, r4, r3, lsl #3
    153a:	4628      	mov	r0, r5
    153c:	4633      	mov	r3, r6
    153e:	4632      	mov	r2, r6
    1540:	6066      	str	r6, [r4, #4]
    1542:	61e6      	str	r6, [r4, #28]
    1544:	2100      	movs	r1, #0
    1546:	e8bd 41f0 	ldmia.w	sp!, {r4, r5, r6, r7, r8, lr}
    154a:	f7ff bf05 	b.w	1358 <serial_set_flow_control>
    154e:	4a2c      	ldr	r2, [pc, #176]	; (1600 <serial_init+0x180>)
    1550:	f8d2 30c4 	ldr.w	r3, [r2, #196]	; 0xc4
    1554:	f043 7380 	orr.w	r3, r3, #16777216	; 0x1000000
    1558:	f8c2 30c4 	str.w	r3, [r2, #196]	; 0xc4
    155c:	e7b6      	b.n	14cc <serial_init+0x4c>
    155e:	f5a3 4380 	sub.w	r3, r3, #16384	; 0x4000
    1562:	429c      	cmp	r4, r3
    1564:	d12b      	bne.n	15be <serial_init+0x13e>
    1566:	4e27      	ldr	r6, [pc, #156]	; (1604 <serial_init+0x184>)
    1568:	f04f 34ff 	mov.w	r4, #4294967295
    156c:	2100      	movs	r1, #0
    156e:	6069      	str	r1, [r5, #4]
    1570:	4623      	mov	r3, r4
    1572:	4622      	mov	r2, r4
    1574:	4628      	mov	r0, r5
    1576:	6074      	str	r4, [r6, #4]
    1578:	61f4      	str	r4, [r6, #28]
    157a:	f7ff feed 	bl	1358 <serial_set_flow_control>
    157e:	4b22      	ldr	r3, [pc, #136]	; (1608 <serial_init+0x188>)
    1580:	2201      	movs	r2, #1
    1582:	601a      	str	r2, [r3, #0]
    1584:	6828      	ldr	r0, [r5, #0]
    1586:	6869      	ldr	r1, [r5, #4]
    1588:	4b20      	ldr	r3, [pc, #128]	; (160c <serial_init+0x18c>)
    158a:	c303      	stmia	r3!, {r0, r1}
    158c:	e8bd 81f0 	ldmia.w	sp!, {r4, r5, r6, r7, r8, pc}
    1590:	f5a3 4380 	sub.w	r3, r3, #16384	; 0x4000
    1594:	4298      	cmp	r0, r3
    1596:	d199      	bne.n	14cc <serial_init+0x4c>
    1598:	4a19      	ldr	r2, [pc, #100]	; (1600 <serial_init+0x180>)
    159a:	f8d2 30c4 	ldr.w	r3, [r2, #196]	; 0xc4
    159e:	f043 0308 	orr.w	r3, r3, #8
    15a2:	f8c2 30c4 	str.w	r3, [r2, #196]	; 0xc4
    15a6:	e791      	b.n	14cc <serial_init+0x4c>
    15a8:	2301      	movs	r3, #1
    15aa:	606b      	str	r3, [r5, #4]
    15ac:	e7be      	b.n	152c <serial_init+0xac>
    15ae:	4a14      	ldr	r2, [pc, #80]	; (1600 <serial_init+0x180>)
    15b0:	f8d2 30c4 	ldr.w	r3, [r2, #196]	; 0xc4
    15b4:	f043 0310 	orr.w	r3, r3, #16
    15b8:	f8c2 30c4 	str.w	r3, [r2, #196]	; 0xc4
    15bc:	e786      	b.n	14cc <serial_init+0x4c>
    15be:	686e      	ldr	r6, [r5, #4]
    15c0:	4b10      	ldr	r3, [pc, #64]	; (1604 <serial_init+0x184>)
    15c2:	ebc6 06c6 	rsb	r6, r6, r6, lsl #3
    15c6:	f04f 37ff 	mov.w	r7, #4294967295
    15ca:	eb03 06c6 	add.w	r6, r3, r6, lsl #3
    15ce:	463a      	mov	r2, r7
    15d0:	463b      	mov	r3, r7
    15d2:	2100      	movs	r1, #0
    15d4:	4628      	mov	r0, r5
    15d6:	6077      	str	r7, [r6, #4]
    15d8:	61f7      	str	r7, [r6, #28]
    15da:	f7ff febd 	bl	1358 <serial_set_flow_control>
    15de:	4b0c      	ldr	r3, [pc, #48]	; (1610 <serial_init+0x190>)
    15e0:	429c      	cmp	r4, r3
    15e2:	d0cc      	beq.n	157e <serial_init+0xfe>
    15e4:	e8bd 81f0 	ldmia.w	sp!, {r4, r5, r6, r7, r8, pc}
    15e8:	2302      	movs	r3, #2
    15ea:	606b      	str	r3, [r5, #4]
    15ec:	e79e      	b.n	152c <serial_init+0xac>
    15ee:	bf00      	nop
    15f0:	00004cac 	.word	0x00004cac
    15f4:	00004c40 	.word	0x00004c40
    15f8:	40010000 	.word	0x40010000
    15fc:	40098000 	.word	0x40098000
    1600:	400fc000 	.word	0x400fc000
    1604:	10000240 	.word	0x10000240
    1608:	10000238 	.word	0x10000238
    160c:	10000434 	.word	0x10000434
    1610:	4000c000 	.word	0x4000c000

00001614 <us_ticker_init.part.0>:
    1614:	b538      	push	{r3, r4, r5, lr}
    1616:	4910      	ldr	r1, [pc, #64]	; (1658 <us_ticker_init.part.0+0x44>)
    1618:	4b10      	ldr	r3, [pc, #64]	; (165c <us_ticker_init.part.0+0x48>)
    161a:	2401      	movs	r4, #1
    161c:	601c      	str	r4, [r3, #0]
    161e:	f8d1 30c4 	ldr.w	r3, [r1, #196]	; 0xc4
    1622:	4a0f      	ldr	r2, [pc, #60]	; (1660 <us_ticker_init.part.0+0x4c>)
    1624:	f443 0300 	orr.w	r3, r3, #8388608	; 0x800000
    1628:	480e      	ldr	r0, [pc, #56]	; (1664 <us_ticker_init.part.0+0x50>)
    162a:	2500      	movs	r5, #0
    162c:	f8c1 30c4 	str.w	r3, [r1, #196]	; 0xc4
    1630:	6715      	str	r5, [r2, #112]	; 0x70
    1632:	6803      	ldr	r3, [r0, #0]
    1634:	480c      	ldr	r0, [pc, #48]	; (1668 <us_ticker_init.part.0+0x54>)
    1636:	2102      	movs	r1, #2
    1638:	fba0 0303 	umull	r0, r3, r0, r3
    163c:	0d1b      	lsrs	r3, r3, #20
    163e:	3b01      	subs	r3, #1
    1640:	6051      	str	r1, [r2, #4]
    1642:	2004      	movs	r0, #4
    1644:	60d3      	str	r3, [r2, #12]
    1646:	4909      	ldr	r1, [pc, #36]	; (166c <us_ticker_init.part.0+0x58>)
    1648:	6054      	str	r4, [r2, #4]
    164a:	f7ff f985 	bl	958 <NVIC_SetVector>
    164e:	4b08      	ldr	r3, [pc, #32]	; (1670 <us_ticker_init.part.0+0x5c>)
    1650:	2210      	movs	r2, #16
    1652:	601a      	str	r2, [r3, #0]
    1654:	bd38      	pop	{r3, r4, r5, pc}
    1656:	bf00      	nop
    1658:	400fc000 	.word	0x400fc000
    165c:	10000320 	.word	0x10000320
    1660:	40094000 	.word	0x40094000
    1664:	100000cc 	.word	0x100000cc
    1668:	431bde83 	.word	0x431bde83
    166c:	00000911 	.word	0x00000911
    1670:	e000e100 	.word	0xe000e100

00001674 <us_ticker_init>:
    1674:	4b02      	ldr	r3, [pc, #8]	; (1680 <us_ticker_init+0xc>)
    1676:	681b      	ldr	r3, [r3, #0]
    1678:	b103      	cbz	r3, 167c <us_ticker_init+0x8>
    167a:	4770      	bx	lr
    167c:	f7ff bfca 	b.w	1614 <us_ticker_init.part.0>
    1680:	10000320 	.word	0x10000320

00001684 <us_ticker_read>:
    1684:	b508      	push	{r3, lr}
    1686:	4b04      	ldr	r3, [pc, #16]	; (1698 <us_ticker_read+0x14>)
    1688:	681b      	ldr	r3, [r3, #0]
    168a:	b90b      	cbnz	r3, 1690 <us_ticker_read+0xc>
    168c:	f7ff ffc2 	bl	1614 <us_ticker_init.part.0>
    1690:	4b02      	ldr	r3, [pc, #8]	; (169c <us_ticker_read+0x18>)
    1692:	6898      	ldr	r0, [r3, #8]
    1694:	bd08      	pop	{r3, pc}
    1696:	bf00      	nop
    1698:	10000320 	.word	0x10000320
    169c:	40094000 	.word	0x40094000

000016a0 <us_ticker_set_interrupt>:
    16a0:	4b03      	ldr	r3, [pc, #12]	; (16b0 <us_ticker_set_interrupt+0x10>)
    16a2:	6198      	str	r0, [r3, #24]
    16a4:	695a      	ldr	r2, [r3, #20]
    16a6:	f042 0201 	orr.w	r2, r2, #1
    16aa:	615a      	str	r2, [r3, #20]
    16ac:	4770      	bx	lr
    16ae:	bf00      	nop
    16b0:	40094000 	.word	0x40094000

000016b4 <us_ticker_disable_interrupt>:
    16b4:	4a02      	ldr	r2, [pc, #8]	; (16c0 <us_ticker_disable_interrupt+0xc>)
    16b6:	6953      	ldr	r3, [r2, #20]
    16b8:	f023 0301 	bic.w	r3, r3, #1
    16bc:	6153      	str	r3, [r2, #20]
    16be:	4770      	bx	lr
    16c0:	40094000 	.word	0x40094000

000016c4 <us_ticker_clear_interrupt>:
    16c4:	4b01      	ldr	r3, [pc, #4]	; (16cc <us_ticker_clear_interrupt+0x8>)
    16c6:	2201      	movs	r2, #1
    16c8:	601a      	str	r2, [r3, #0]
    16ca:	4770      	bx	lr
    16cc:	40094000 	.word	0x40094000

000016d0 <mbed::FileBase::~FileBase()>:
    16d0:	4a09      	ldr	r2, [pc, #36]	; (16f8 <mbed::FileBase::~FileBase()+0x28>)
    16d2:	6883      	ldr	r3, [r0, #8]
    16d4:	6002      	str	r2, [r0, #0]
    16d6:	b153      	cbz	r3, 16ee <mbed::FileBase::~FileBase()+0x1e>
    16d8:	4b08      	ldr	r3, [pc, #32]	; (16fc <mbed::FileBase::~FileBase()+0x2c>)
    16da:	681a      	ldr	r2, [r3, #0]
    16dc:	4290      	cmp	r0, r2
    16de:	d101      	bne.n	16e4 <mbed::FileBase::~FileBase()+0x14>
    16e0:	e006      	b.n	16f0 <mbed::FileBase::~FileBase()+0x20>
    16e2:	461a      	mov	r2, r3
    16e4:	6853      	ldr	r3, [r2, #4]
    16e6:	4298      	cmp	r0, r3
    16e8:	d1fb      	bne.n	16e2 <mbed::FileBase::~FileBase()+0x12>
    16ea:	6843      	ldr	r3, [r0, #4]
    16ec:	6053      	str	r3, [r2, #4]
    16ee:	4770      	bx	lr
    16f0:	6842      	ldr	r2, [r0, #4]
    16f2:	601a      	str	r2, [r3, #0]
    16f4:	4770      	bx	lr
    16f6:	bf00      	nop
    16f8:	00004d44 	.word	0x00004d44
    16fc:	10000324 	.word	0x10000324

00001700 <mbed::FileBase::~FileBase()>:
    1700:	4a0c      	ldr	r2, [pc, #48]	; (1734 <mbed::FileBase::~FileBase()+0x34>)
    1702:	6883      	ldr	r3, [r0, #8]
    1704:	b510      	push	{r4, lr}
    1706:	4604      	mov	r4, r0
    1708:	6002      	str	r2, [r0, #0]
    170a:	b153      	cbz	r3, 1722 <mbed::FileBase::~FileBase()+0x22>
    170c:	4b0a      	ldr	r3, [pc, #40]	; (1738 <mbed::FileBase::~FileBase()+0x38>)
    170e:	681a      	ldr	r2, [r3, #0]
    1710:	4290      	cmp	r0, r2
    1712:	d101      	bne.n	1718 <mbed::FileBase::~FileBase()+0x18>
    1714:	e00a      	b.n	172c <mbed::FileBase::~FileBase()+0x2c>
    1716:	461a      	mov	r2, r3
    1718:	6853      	ldr	r3, [r2, #4]
    171a:	429c      	cmp	r4, r3
    171c:	d1fb      	bne.n	1716 <mbed::FileBase::~FileBase()+0x16>
    171e:	6863      	ldr	r3, [r4, #4]
    1720:	6053      	str	r3, [r2, #4]
    1722:	4620      	mov	r0, r4
    1724:	f000 fbaf 	bl	1e86 <operator delete(void*)>
    1728:	4620      	mov	r0, r4
    172a:	bd10      	pop	{r4, pc}
    172c:	6842      	ldr	r2, [r0, #4]
    172e:	601a      	str	r2, [r3, #0]
    1730:	e7f7      	b.n	1722 <mbed::FileBase::~FileBase()+0x22>
    1732:	bf00      	nop
    1734:	00004d44 	.word	0x00004d44
    1738:	10000324 	.word	0x10000324

0000173c <mbed::FileBase::FileBase(char const*, mbed::PathType)>:
    173c:	b410      	push	{r4}
    173e:	4c06      	ldr	r4, [pc, #24]	; (1758 <mbed::FileBase::FileBase(char const*, mbed::PathType)+0x1c>)
    1740:	2300      	movs	r3, #0
    1742:	7302      	strb	r2, [r0, #12]
    1744:	6081      	str	r1, [r0, #8]
    1746:	6004      	str	r4, [r0, #0]
    1748:	6043      	str	r3, [r0, #4]
    174a:	b119      	cbz	r1, 1754 <mbed::FileBase::FileBase(char const*, mbed::PathType)+0x18>
    174c:	4b03      	ldr	r3, [pc, #12]	; (175c <mbed::FileBase::FileBase(char const*, mbed::PathType)+0x20>)
    174e:	681a      	ldr	r2, [r3, #0]
    1750:	6018      	str	r0, [r3, #0]
    1752:	6042      	str	r2, [r0, #4]
    1754:	bc10      	pop	{r4}
    1756:	4770      	bx	lr
    1758:	00004d44 	.word	0x00004d44
    175c:	10000324 	.word	0x10000324

00001760 <mbed::FileBase::lookup(char const*, unsigned int)>:
    1760:	b5f8      	push	{r3, r4, r5, r6, r7, lr}
    1762:	4b0b      	ldr	r3, [pc, #44]	; (1790 <mbed::FileBase::lookup(char const*, unsigned int)+0x30>)
    1764:	681c      	ldr	r4, [r3, #0]
    1766:	b18c      	cbz	r4, 178c <mbed::FileBase::lookup(char const*, unsigned int)+0x2c>
    1768:	4607      	mov	r7, r0
    176a:	460e      	mov	r6, r1
    176c:	68a5      	ldr	r5, [r4, #8]
    176e:	b155      	cbz	r5, 1786 <mbed::FileBase::lookup(char const*, unsigned int)+0x26>
    1770:	4632      	mov	r2, r6
    1772:	4639      	mov	r1, r7
    1774:	4628      	mov	r0, r5
    1776:	f002 fb1e 	bl	3db6 <strncmp>
    177a:	b920      	cbnz	r0, 1786 <mbed::FileBase::lookup(char const*, unsigned int)+0x26>
    177c:	4628      	mov	r0, r5
    177e:	f002 fb12 	bl	3da6 <strlen>
    1782:	4286      	cmp	r6, r0
    1784:	d002      	beq.n	178c <mbed::FileBase::lookup(char const*, unsigned int)+0x2c>
    1786:	6864      	ldr	r4, [r4, #4]
    1788:	2c00      	cmp	r4, #0
    178a:	d1ef      	bne.n	176c <mbed::FileBase::lookup(char const*, unsigned int)+0xc>
    178c:	4620      	mov	r0, r4
    178e:	bdf8      	pop	{r3, r4, r5, r6, r7, pc}
    1790:	10000324 	.word	0x10000324

00001794 <mbed::FileBase::getPathType()>:
    1794:	7b00      	ldrb	r0, [r0, #12]
    1796:	4770      	bx	lr

00001798 <mbed::FileHandle::flen()>:
    1798:	6803      	ldr	r3, [r0, #0]
    179a:	b570      	push	{r4, r5, r6, lr}
    179c:	2201      	movs	r2, #1
    179e:	691b      	ldr	r3, [r3, #16]
    17a0:	2100      	movs	r1, #0
    17a2:	4604      	mov	r4, r0
    17a4:	4798      	blx	r3
    17a6:	4606      	mov	r6, r0
    17a8:	3001      	adds	r0, #1
    17aa:	d00e      	beq.n	17ca <mbed::FileHandle::flen()+0x32>
    17ac:	6823      	ldr	r3, [r4, #0]
    17ae:	2202      	movs	r2, #2
    17b0:	691b      	ldr	r3, [r3, #16]
    17b2:	2100      	movs	r1, #0
    17b4:	4620      	mov	r0, r4
    17b6:	4798      	blx	r3
    17b8:	4605      	mov	r5, r0
    17ba:	6823      	ldr	r3, [r4, #0]
    17bc:	4631      	mov	r1, r6
    17be:	691b      	ldr	r3, [r3, #16]
    17c0:	4620      	mov	r0, r4
    17c2:	2200      	movs	r2, #0
    17c4:	4798      	blx	r3
    17c6:	4628      	mov	r0, r5
    17c8:	bd70      	pop	{r4, r5, r6, pc}
    17ca:	4630      	mov	r0, r6
    17cc:	bd70      	pop	{r4, r5, r6, pc}
    17ce:	bf00      	nop

000017d0 <mbed::FileLike::FileLike(char const*)>:
    17d0:	b510      	push	{r4, lr}
    17d2:	4604      	mov	r4, r0
    17d4:	4b06      	ldr	r3, [pc, #24]	; (17f0 <mbed::FileLike::FileLike(char const*)+0x20>)
    17d6:	2200      	movs	r2, #0
    17d8:	f840 3b04 	str.w	r3, [r0], #4
    17dc:	f7ff ffae 	bl	173c <mbed::FileBase::FileBase(char const*, mbed::PathType)>
    17e0:	4b04      	ldr	r3, [pc, #16]	; (17f4 <mbed::FileLike::FileLike(char const*)+0x24>)
    17e2:	4620      	mov	r0, r4
    17e4:	f103 0208 	add.w	r2, r3, #8
    17e8:	3334      	adds	r3, #52	; 0x34
    17ea:	e884 000c 	stmia.w	r4, {r2, r3}
    17ee:	bd10      	pop	{r4, pc}
    17f0:	00004da8 	.word	0x00004da8
    17f4:	00004d4c 	.word	0x00004d4c

000017f8 <mbed::FileLike::~FileLike()>:
    17f8:	b510      	push	{r4, lr}
    17fa:	4604      	mov	r4, r0
    17fc:	4b06      	ldr	r3, [pc, #24]	; (1818 <mbed::FileLike::~FileLike()+0x20>)
    17fe:	f103 0208 	add.w	r2, r3, #8
    1802:	3334      	adds	r3, #52	; 0x34
    1804:	6002      	str	r2, [r0, #0]
    1806:	f840 3f04 	str.w	r3, [r0, #4]!
    180a:	f7ff ff61 	bl	16d0 <mbed::FileBase::~FileBase()>
    180e:	4620      	mov	r0, r4
    1810:	f000 f8ca 	bl	19a8 <mbed::FileHandle::~FileHandle()>
    1814:	4620      	mov	r0, r4
    1816:	bd10      	pop	{r4, pc}
    1818:	00004d4c 	.word	0x00004d4c

0000181c <mbed::FilePath::FilePath(char const*)>:
    181c:	b538      	push	{r3, r4, r5, lr}
    181e:	2300      	movs	r3, #0
    1820:	6003      	str	r3, [r0, #0]
    1822:	6043      	str	r3, [r0, #4]
    1824:	780a      	ldrb	r2, [r1, #0]
    1826:	4604      	mov	r4, r0
    1828:	2a2f      	cmp	r2, #47	; 0x2f
    182a:	d001      	beq.n	1830 <mbed::FilePath::FilePath(char const*)+0x14>
    182c:	4620      	mov	r0, r4
    182e:	bd38      	pop	{r3, r4, r5, pc}
    1830:	784a      	ldrb	r2, [r1, #1]
    1832:	2a00      	cmp	r2, #0
    1834:	d0fa      	beq.n	182c <mbed::FilePath::FilePath(char const*)+0x10>
    1836:	1c48      	adds	r0, r1, #1
    1838:	6020      	str	r0, [r4, #0]
    183a:	784d      	ldrb	r5, [r1, #1]
    183c:	2d2f      	cmp	r5, #47	; 0x2f
    183e:	d013      	beq.n	1868 <mbed::FilePath::FilePath(char const*)+0x4c>
    1840:	b185      	cbz	r5, 1864 <mbed::FilePath::FilePath(char const*)+0x48>
    1842:	4603      	mov	r3, r0
    1844:	e000      	b.n	1848 <mbed::FilePath::FilePath(char const*)+0x2c>
    1846:	b16a      	cbz	r2, 1864 <mbed::FilePath::FilePath(char const*)+0x48>
    1848:	1a5d      	subs	r5, r3, r1
    184a:	3301      	adds	r3, #1
    184c:	6023      	str	r3, [r4, #0]
    184e:	781a      	ldrb	r2, [r3, #0]
    1850:	2a2f      	cmp	r2, #47	; 0x2f
    1852:	d1f8      	bne.n	1846 <mbed::FilePath::FilePath(char const*)+0x2a>
    1854:	4629      	mov	r1, r5
    1856:	3301      	adds	r3, #1
    1858:	6023      	str	r3, [r4, #0]
    185a:	f7ff ff81 	bl	1760 <mbed::FileBase::lookup(char const*, unsigned int)>
    185e:	6060      	str	r0, [r4, #4]
    1860:	4620      	mov	r0, r4
    1862:	bd38      	pop	{r3, r4, r5, pc}
    1864:	4629      	mov	r1, r5
    1866:	e7f8      	b.n	185a <mbed::FilePath::FilePath(char const*)+0x3e>
    1868:	4619      	mov	r1, r3
    186a:	4603      	mov	r3, r0
    186c:	e7f3      	b.n	1856 <mbed::FilePath::FilePath(char const*)+0x3a>
    186e:	bf00      	nop

00001870 <mbed::FilePath::fileName()>:
    1870:	6800      	ldr	r0, [r0, #0]
    1872:	4770      	bx	lr

00001874 <mbed::FilePath::fileSystem()>:
    1874:	6843      	ldr	r3, [r0, #4]
    1876:	b143      	cbz	r3, 188a <mbed::FilePath::fileSystem()+0x16>
    1878:	b510      	push	{r4, lr}
    187a:	4604      	mov	r4, r0
    187c:	4618      	mov	r0, r3
    187e:	f7ff ff89 	bl	1794 <mbed::FileBase::getPathType()>
    1882:	2801      	cmp	r0, #1
    1884:	d103      	bne.n	188e <mbed::FilePath::fileSystem()+0x1a>
    1886:	6860      	ldr	r0, [r4, #4]
    1888:	bd10      	pop	{r4, pc}
    188a:	2000      	movs	r0, #0
    188c:	4770      	bx	lr
    188e:	2000      	movs	r0, #0
    1890:	bd10      	pop	{r4, pc}
    1892:	bf00      	nop

00001894 <mbed::FilePath::isFile()>:
    1894:	6840      	ldr	r0, [r0, #4]
    1896:	b130      	cbz	r0, 18a6 <mbed::FilePath::isFile()+0x12>
    1898:	b508      	push	{r3, lr}
    189a:	f7ff ff7b 	bl	1794 <mbed::FileBase::getPathType()>
    189e:	fab0 f080 	clz	r0, r0
    18a2:	0940      	lsrs	r0, r0, #5
    18a4:	bd08      	pop	{r3, pc}
    18a6:	4770      	bx	lr

000018a8 <mbed::FilePath::file()>:
    18a8:	6843      	ldr	r3, [r0, #4]
    18aa:	b14b      	cbz	r3, 18c0 <mbed::FilePath::file()+0x18>
    18ac:	b510      	push	{r4, lr}
    18ae:	4604      	mov	r4, r0
    18b0:	4618      	mov	r0, r3
    18b2:	f7ff ff6f 	bl	1794 <mbed::FileBase::getPathType()>
    18b6:	b928      	cbnz	r0, 18c4 <mbed::FilePath::file()+0x1c>
    18b8:	6860      	ldr	r0, [r4, #4]
    18ba:	b118      	cbz	r0, 18c4 <mbed::FilePath::file()+0x1c>
    18bc:	3804      	subs	r0, #4
    18be:	bd10      	pop	{r4, pc}
    18c0:	2000      	movs	r0, #0
    18c2:	4770      	bx	lr
    18c4:	2000      	movs	r0, #0
    18c6:	bd10      	pop	{r4, pc}

000018c8 <mbed::FilePath::exists()>:
    18c8:	6840      	ldr	r0, [r0, #4]
    18ca:	3000      	adds	r0, #0
    18cc:	bf18      	it	ne
    18ce:	2001      	movne	r0, #1
    18d0:	4770      	bx	lr
    18d2:	bf00      	nop

000018d4 <mbed::I2C::I2C(PinName, PinName)>:
    18d4:	b538      	push	{r3, r4, r5, lr}
    18d6:	4604      	mov	r4, r0
    18d8:	4b04      	ldr	r3, [pc, #16]	; (18ec <mbed::I2C::I2C(PinName, PinName)+0x18>)
    18da:	2500      	movs	r5, #0
    18dc:	6005      	str	r5, [r0, #0]
    18de:	6043      	str	r3, [r0, #4]
    18e0:	f7ff f8e8 	bl	ab4 <i2c_init>
    18e4:	4b02      	ldr	r3, [pc, #8]	; (18f0 <mbed::I2C::I2C(PinName, PinName)+0x1c>)
    18e6:	4620      	mov	r0, r4
    18e8:	601c      	str	r4, [r3, #0]
    18ea:	bd38      	pop	{r3, r4, r5, pc}
    18ec:	000186a0 	.word	0x000186a0
    18f0:	10000328 	.word	0x10000328

000018f4 <mbed::I2C::frequency(int)>:
    18f4:	b510      	push	{r4, lr}
    18f6:	4604      	mov	r4, r0
    18f8:	6041      	str	r1, [r0, #4]
    18fa:	f7ff f935 	bl	b68 <i2c_frequency>
    18fe:	4b01      	ldr	r3, [pc, #4]	; (1904 <mbed::I2C::frequency(int)+0x10>)
    1900:	601c      	str	r4, [r3, #0]
    1902:	bd10      	pop	{r4, pc}
    1904:	10000328 	.word	0x10000328

00001908 <mbed::I2C::write(int, char const*, int, bool)>:
    1908:	e92d 43f0 	stmdb	sp!, {r4, r5, r6, r7, r8, r9, lr}
    190c:	4f0e      	ldr	r7, [pc, #56]	; (1948 <mbed::I2C::write(int, char const*, int, bool)+0x40>)
    190e:	4688      	mov	r8, r1
    1910:	6839      	ldr	r1, [r7, #0]
    1912:	b083      	sub	sp, #12
    1914:	4288      	cmp	r0, r1
    1916:	4604      	mov	r4, r0
    1918:	4691      	mov	r9, r2
    191a:	461e      	mov	r6, r3
    191c:	f89d 5028 	ldrb.w	r5, [sp, #40]	; 0x28
    1920:	d003      	beq.n	192a <mbed::I2C::write(int, char const*, int, bool)+0x22>
    1922:	6841      	ldr	r1, [r0, #4]
    1924:	f7ff f920 	bl	b68 <i2c_frequency>
    1928:	603c      	str	r4, [r7, #0]
    192a:	f085 0501 	eor.w	r5, r5, #1
    192e:	9500      	str	r5, [sp, #0]
    1930:	464a      	mov	r2, r9
    1932:	4641      	mov	r1, r8
    1934:	4620      	mov	r0, r4
    1936:	4633      	mov	r3, r6
    1938:	f7ff f9c8 	bl	ccc <i2c_write>
    193c:	1a30      	subs	r0, r6, r0
    193e:	bf18      	it	ne
    1940:	2001      	movne	r0, #1
    1942:	b003      	add	sp, #12
    1944:	e8bd 83f0 	ldmia.w	sp!, {r4, r5, r6, r7, r8, r9, pc}
    1948:	10000328 	.word	0x10000328

0000194c <mbed::I2C::read(int, char*, int, bool)>:
    194c:	e92d 43f0 	stmdb	sp!, {r4, r5, r6, r7, r8, r9, lr}
    1950:	4f0e      	ldr	r7, [pc, #56]	; (198c <mbed::I2C::read(int, char*, int, bool)+0x40>)
    1952:	4688      	mov	r8, r1
    1954:	6839      	ldr	r1, [r7, #0]
    1956:	b083      	sub	sp, #12
    1958:	4288      	cmp	r0, r1
    195a:	4604      	mov	r4, r0
    195c:	4691      	mov	r9, r2
    195e:	461e      	mov	r6, r3
    1960:	f89d 5028 	ldrb.w	r5, [sp, #40]	; 0x28
    1964:	d003      	beq.n	196e <mbed::I2C::read(int, char*, int, bool)+0x22>
    1966:	6841      	ldr	r1, [r0, #4]
    1968:	f7ff f8fe 	bl	b68 <i2c_frequency>
    196c:	603c      	str	r4, [r7, #0]
    196e:	f085 0501 	eor.w	r5, r5, #1
    1972:	9500      	str	r5, [sp, #0]
    1974:	464a      	mov	r2, r9
    1976:	4641      	mov	r1, r8
    1978:	4620      	mov	r0, r4
    197a:	4633      	mov	r3, r6
    197c:	f7ff f900 	bl	b80 <i2c_read>
    1980:	1a30      	subs	r0, r6, r0
    1982:	bf18      	it	ne
    1984:	2001      	movne	r0, #1
    1986:	b003      	add	sp, #12
    1988:	e8bd 83f0 	ldmia.w	sp!, {r4, r5, r6, r7, r8, r9, pc}
    198c:	10000328 	.word	0x10000328

00001990 <init_serial() [clone .part.0]>:
    1990:	4a02      	ldr	r2, [pc, #8]	; (199c <init_serial() [clone .part.0]+0xc>)
    1992:	4903      	ldr	r1, [pc, #12]	; (19a0 <init_serial() [clone .part.0]+0x10>)
    1994:	4803      	ldr	r0, [pc, #12]	; (19a4 <init_serial() [clone .part.0]+0x14>)
    1996:	f7ff bd73 	b.w	1480 <serial_init>
    199a:	bf00      	nop
    199c:	2009c003 	.word	0x2009c003
    19a0:	2009c002 	.word	0x2009c002
    19a4:	10000434 	.word	0x10000434

000019a8 <mbed::FileHandle::~FileHandle()>:
    19a8:	4a07      	ldr	r2, [pc, #28]	; (19c8 <mbed::FileHandle::~FileHandle()+0x20>)
    19aa:	4b08      	ldr	r3, [pc, #32]	; (19cc <mbed::FileHandle::~FileHandle()+0x24>)
    19ac:	b410      	push	{r4}
    19ae:	6002      	str	r2, [r0, #0]
    19b0:	f503 7180 	add.w	r1, r3, #256	; 0x100
    19b4:	2400      	movs	r4, #0
    19b6:	f853 2f04 	ldr.w	r2, [r3, #4]!
    19ba:	4290      	cmp	r0, r2
    19bc:	bf08      	it	eq
    19be:	601c      	streq	r4, [r3, #0]
    19c0:	428b      	cmp	r3, r1
    19c2:	d1f8      	bne.n	19b6 <mbed::FileHandle::~FileHandle()+0xe>
    19c4:	bc10      	pop	{r4}
    19c6:	4770      	bx	lr
    19c8:	00004da8 	.word	0x00004da8
    19cc:	10000328 	.word	0x10000328

000019d0 <_open>:
    19d0:	b5f0      	push	{r4, r5, r6, r7, lr}
    19d2:	460e      	mov	r6, r1
    19d4:	b085      	sub	sp, #20
    19d6:	4937      	ldr	r1, [pc, #220]	; (1ab4 <_open+0xe4>)
    19d8:	4605      	mov	r5, r0
    19da:	f002 f9da 	bl	3d92 <strcmp>
    19de:	b928      	cbnz	r0, 19ec <_open+0x1c>
    19e0:	4b35      	ldr	r3, [pc, #212]	; (1ab8 <_open+0xe8>)
    19e2:	681b      	ldr	r3, [r3, #0]
    19e4:	2b00      	cmp	r3, #0
    19e6:	d042      	beq.n	1a6e <_open+0x9e>
    19e8:	b005      	add	sp, #20
    19ea:	bdf0      	pop	{r4, r5, r6, r7, pc}
    19ec:	4933      	ldr	r1, [pc, #204]	; (1abc <_open+0xec>)
    19ee:	4628      	mov	r0, r5
    19f0:	f002 f9cf 	bl	3d92 <strcmp>
    19f4:	b930      	cbnz	r0, 1a04 <_open+0x34>
    19f6:	4b30      	ldr	r3, [pc, #192]	; (1ab8 <_open+0xe8>)
    19f8:	681b      	ldr	r3, [r3, #0]
    19fa:	2b00      	cmp	r3, #0
    19fc:	d042      	beq.n	1a84 <_open+0xb4>
    19fe:	2001      	movs	r0, #1
    1a00:	b005      	add	sp, #20
    1a02:	bdf0      	pop	{r4, r5, r6, r7, pc}
    1a04:	492e      	ldr	r1, [pc, #184]	; (1ac0 <_open+0xf0>)
    1a06:	4628      	mov	r0, r5
    1a08:	f002 f9c3 	bl	3d92 <strcmp>
    1a0c:	2800      	cmp	r0, #0
    1a0e:	d034      	beq.n	1a7a <_open+0xaa>
    1a10:	4b2c      	ldr	r3, [pc, #176]	; (1ac4 <_open+0xf4>)
    1a12:	2400      	movs	r4, #0
    1a14:	e002      	b.n	1a1c <_open+0x4c>
    1a16:	3401      	adds	r4, #1
    1a18:	2c40      	cmp	r4, #64	; 0x40
    1a1a:	d03c      	beq.n	1a96 <_open+0xc6>
    1a1c:	f853 2f04 	ldr.w	r2, [r3, #4]!
    1a20:	2a00      	cmp	r2, #0
    1a22:	d1f8      	bne.n	1a16 <_open+0x46>
    1a24:	782b      	ldrb	r3, [r5, #0]
    1a26:	2b3a      	cmp	r3, #58	; 0x3a
    1a28:	d03c      	beq.n	1aa4 <_open+0xd4>
    1a2a:	4629      	mov	r1, r5
    1a2c:	a802      	add	r0, sp, #8
    1a2e:	f7ff fef5 	bl	181c <mbed::FilePath::FilePath(char const*)>
    1a32:	a802      	add	r0, sp, #8
    1a34:	f7ff ff48 	bl	18c8 <mbed::FilePath::exists()>
    1a38:	b368      	cbz	r0, 1a96 <_open+0xc6>
    1a3a:	a802      	add	r0, sp, #8
    1a3c:	f7ff ff2a 	bl	1894 <mbed::FilePath::isFile()>
    1a40:	bb20      	cbnz	r0, 1a8c <_open+0xbc>
    1a42:	a802      	add	r0, sp, #8
    1a44:	f7ff ff16 	bl	1874 <mbed::FilePath::fileSystem()>
    1a48:	4605      	mov	r5, r0
    1a4a:	b320      	cbz	r0, 1a96 <_open+0xc6>
    1a4c:	6803      	ldr	r3, [r0, #0]
    1a4e:	a802      	add	r0, sp, #8
    1a50:	689f      	ldr	r7, [r3, #8]
    1a52:	f7ff ff0d 	bl	1870 <mbed::FilePath::fileName()>
    1a56:	4632      	mov	r2, r6
    1a58:	4601      	mov	r1, r0
    1a5a:	4628      	mov	r0, r5
    1a5c:	47b8      	blx	r7
    1a5e:	4603      	mov	r3, r0
    1a60:	b1cb      	cbz	r3, 1a96 <_open+0xc6>
    1a62:	4a19      	ldr	r2, [pc, #100]	; (1ac8 <_open+0xf8>)
    1a64:	1ce0      	adds	r0, r4, #3
    1a66:	f842 3024 	str.w	r3, [r2, r4, lsl #2]
    1a6a:	b005      	add	sp, #20
    1a6c:	bdf0      	pop	{r4, r5, r6, r7, pc}
    1a6e:	9001      	str	r0, [sp, #4]
    1a70:	f7ff ff8e 	bl	1990 <init_serial() [clone .part.0]>
    1a74:	9801      	ldr	r0, [sp, #4]
    1a76:	b005      	add	sp, #20
    1a78:	bdf0      	pop	{r4, r5, r6, r7, pc}
    1a7a:	4b0f      	ldr	r3, [pc, #60]	; (1ab8 <_open+0xe8>)
    1a7c:	681b      	ldr	r3, [r3, #0]
    1a7e:	b16b      	cbz	r3, 1a9c <_open+0xcc>
    1a80:	2002      	movs	r0, #2
    1a82:	e7b1      	b.n	19e8 <_open+0x18>
    1a84:	f7ff ff84 	bl	1990 <init_serial() [clone .part.0]>
    1a88:	2001      	movs	r0, #1
    1a8a:	e7ad      	b.n	19e8 <_open+0x18>
    1a8c:	a802      	add	r0, sp, #8
    1a8e:	f7ff ff0b 	bl	18a8 <mbed::FilePath::file()>
    1a92:	4603      	mov	r3, r0
    1a94:	e7e4      	b.n	1a60 <_open+0x90>
    1a96:	f04f 30ff 	mov.w	r0, #4294967295
    1a9a:	e7a5      	b.n	19e8 <_open+0x18>
    1a9c:	f7ff ff78 	bl	1990 <init_serial() [clone .part.0]>
    1aa0:	2002      	movs	r0, #2
    1aa2:	e7a1      	b.n	19e8 <_open+0x18>
    1aa4:	4628      	mov	r0, r5
    1aa6:	aa02      	add	r2, sp, #8
    1aa8:	4908      	ldr	r1, [pc, #32]	; (1acc <_open+0xfc>)
    1aaa:	f002 f903 	bl	3cb4 <siscanf>
    1aae:	9b02      	ldr	r3, [sp, #8]
    1ab0:	e7d6      	b.n	1a60 <_open+0x90>
    1ab2:	bf00      	nop
    1ab4:	00004d88 	.word	0x00004d88
    1ab8:	10000238 	.word	0x10000238
    1abc:	00004d98 	.word	0x00004d98
    1ac0:	00004d90 	.word	0x00004d90
    1ac4:	10000328 	.word	0x10000328
    1ac8:	1000032c 	.word	0x1000032c
    1acc:	00004dcc 	.word	0x00004dcc

00001ad0 <_close>:
    1ad0:	2802      	cmp	r0, #2
    1ad2:	dd0a      	ble.n	1aea <_close+0x1a>
    1ad4:	4a07      	ldr	r2, [pc, #28]	; (1af4 <_close+0x24>)
    1ad6:	1ec3      	subs	r3, r0, #3
    1ad8:	f852 0023 	ldr.w	r0, [r2, r3, lsl #2]
    1adc:	2100      	movs	r1, #0
    1ade:	f842 1023 	str.w	r1, [r2, r3, lsl #2]
    1ae2:	b120      	cbz	r0, 1aee <_close+0x1e>
    1ae4:	6803      	ldr	r3, [r0, #0]
    1ae6:	685b      	ldr	r3, [r3, #4]
    1ae8:	4718      	bx	r3
    1aea:	2000      	movs	r0, #0
    1aec:	4770      	bx	lr
    1aee:	f04f 30ff 	mov.w	r0, #4294967295
    1af2:	4770      	bx	lr
    1af4:	1000032c 	.word	0x1000032c

00001af8 <_write>:
    1af8:	2802      	cmp	r0, #2
    1afa:	dc12      	bgt.n	1b22 <_write+0x2a>
    1afc:	4b0e      	ldr	r3, [pc, #56]	; (1b38 <_write+0x40>)
    1afe:	b570      	push	{r4, r5, r6, lr}
    1b00:	681b      	ldr	r3, [r3, #0]
    1b02:	460c      	mov	r4, r1
    1b04:	4616      	mov	r6, r2
    1b06:	b90b      	cbnz	r3, 1b0c <_write+0x14>
    1b08:	f7ff ff42 	bl	1990 <init_serial() [clone .part.0]>
    1b0c:	19a5      	adds	r5, r4, r6
    1b0e:	b136      	cbz	r6, 1b1e <_write+0x26>
    1b10:	f814 1b01 	ldrb.w	r1, [r4], #1
    1b14:	4809      	ldr	r0, [pc, #36]	; (1b3c <_write+0x44>)
    1b16:	f7ff fc05 	bl	1324 <serial_putc>
    1b1a:	42ac      	cmp	r4, r5
    1b1c:	d1f8      	bne.n	1b10 <_write+0x18>
    1b1e:	4630      	mov	r0, r6
    1b20:	bd70      	pop	{r4, r5, r6, pc}
    1b22:	4b07      	ldr	r3, [pc, #28]	; (1b40 <_write+0x48>)
    1b24:	3803      	subs	r0, #3
    1b26:	f853 0020 	ldr.w	r0, [r3, r0, lsl #2]
    1b2a:	b110      	cbz	r0, 1b32 <_write+0x3a>
    1b2c:	6803      	ldr	r3, [r0, #0]
    1b2e:	681b      	ldr	r3, [r3, #0]
    1b30:	4718      	bx	r3
    1b32:	f04f 30ff 	mov.w	r0, #4294967295
    1b36:	4770      	bx	lr
    1b38:	10000238 	.word	0x10000238
    1b3c:	10000434 	.word	0x10000434
    1b40:	1000032c 	.word	0x1000032c

00001b44 <_read>:
    1b44:	2802      	cmp	r0, #2
    1b46:	dc0d      	bgt.n	1b64 <_read+0x20>
    1b48:	4b0c      	ldr	r3, [pc, #48]	; (1b7c <_read+0x38>)
    1b4a:	b510      	push	{r4, lr}
    1b4c:	681b      	ldr	r3, [r3, #0]
    1b4e:	460c      	mov	r4, r1
    1b50:	b90b      	cbnz	r3, 1b56 <_read+0x12>
    1b52:	f7ff ff1d 	bl	1990 <init_serial() [clone .part.0]>
    1b56:	480a      	ldr	r0, [pc, #40]	; (1b80 <_read+0x3c>)
    1b58:	f7ff fb9c 	bl	1294 <serial_getc>
    1b5c:	2301      	movs	r3, #1
    1b5e:	7020      	strb	r0, [r4, #0]
    1b60:	4618      	mov	r0, r3
    1b62:	bd10      	pop	{r4, pc}
    1b64:	4b07      	ldr	r3, [pc, #28]	; (1b84 <_read+0x40>)
    1b66:	3803      	subs	r0, #3
    1b68:	f853 0020 	ldr.w	r0, [r3, r0, lsl #2]
    1b6c:	b110      	cbz	r0, 1b74 <_read+0x30>
    1b6e:	6803      	ldr	r3, [r0, #0]
    1b70:	689b      	ldr	r3, [r3, #8]
    1b72:	4718      	bx	r3
    1b74:	f04f 33ff 	mov.w	r3, #4294967295
    1b78:	4618      	mov	r0, r3
    1b7a:	4770      	bx	lr
    1b7c:	10000238 	.word	0x10000238
    1b80:	10000434 	.word	0x10000434
    1b84:	1000032c 	.word	0x1000032c

00001b88 <_isatty>:
    1b88:	2802      	cmp	r0, #2
    1b8a:	dd07      	ble.n	1b9c <_isatty+0x14>
    1b8c:	4b06      	ldr	r3, [pc, #24]	; (1ba8 <_isatty+0x20>)
    1b8e:	3803      	subs	r0, #3
    1b90:	f853 0020 	ldr.w	r0, [r3, r0, lsl #2]
    1b94:	b120      	cbz	r0, 1ba0 <_isatty+0x18>
    1b96:	6803      	ldr	r3, [r0, #0]
    1b98:	68db      	ldr	r3, [r3, #12]
    1b9a:	4718      	bx	r3
    1b9c:	2001      	movs	r0, #1
    1b9e:	4770      	bx	lr
    1ba0:	f04f 30ff 	mov.w	r0, #4294967295
    1ba4:	4770      	bx	lr
    1ba6:	bf00      	nop
    1ba8:	1000032c 	.word	0x1000032c

00001bac <_lseek>:
    1bac:	2802      	cmp	r0, #2
    1bae:	dd07      	ble.n	1bc0 <_lseek+0x14>
    1bb0:	4b06      	ldr	r3, [pc, #24]	; (1bcc <_lseek+0x20>)
    1bb2:	3803      	subs	r0, #3
    1bb4:	f853 0020 	ldr.w	r0, [r3, r0, lsl #2]
    1bb8:	b120      	cbz	r0, 1bc4 <_lseek+0x18>
    1bba:	6803      	ldr	r3, [r0, #0]
    1bbc:	691b      	ldr	r3, [r3, #16]
    1bbe:	4718      	bx	r3
    1bc0:	2000      	movs	r0, #0
    1bc2:	4770      	bx	lr
    1bc4:	f04f 30ff 	mov.w	r0, #4294967295
    1bc8:	4770      	bx	lr
    1bca:	bf00      	nop
    1bcc:	1000032c 	.word	0x1000032c

00001bd0 <_fstat>:
    1bd0:	2802      	cmp	r0, #2
    1bd2:	b508      	push	{r3, lr}
    1bd4:	d804      	bhi.n	1be0 <_fstat+0x10>
    1bd6:	f44f 5300 	mov.w	r3, #8192	; 0x2000
    1bda:	604b      	str	r3, [r1, #4]
    1bdc:	2000      	movs	r0, #0
    1bde:	bd08      	pop	{r3, pc}
    1be0:	f000 fef2 	bl	29c8 <__errno>
    1be4:	2309      	movs	r3, #9
    1be6:	6003      	str	r3, [r0, #0]
    1be8:	f04f 30ff 	mov.w	r0, #4294967295
    1bec:	bd08      	pop	{r3, pc}
    1bee:	bf00      	nop

00001bf0 <mbed_main>:
    1bf0:	4770      	bx	lr
    1bf2:	bf00      	nop

00001bf4 <mbed_sdk_init>:
    1bf4:	4770      	bx	lr
    1bf6:	bf00      	nop

00001bf8 <__wrap_main>:
    1bf8:	b508      	push	{r3, lr}
    1bfa:	f7ff fffb 	bl	1bf4 <mbed_sdk_init>
    1bfe:	f7ff fff7 	bl	1bf0 <mbed_main>
    1c02:	e8bd 4008 	ldmia.w	sp!, {r3, lr}
    1c06:	f7fe bad5 	b.w	1b4 <main>
    1c0a:	bf00      	nop

00001c0c <_sbrk>:
    1c0c:	4a07      	ldr	r2, [pc, #28]	; (1c2c <_sbrk+0x20>)
    1c0e:	6813      	ldr	r3, [r2, #0]
    1c10:	1819      	adds	r1, r3, r0
    1c12:	f3ef 8008 	mrs	r0, MSP
    1c16:	4281      	cmp	r1, r0
    1c18:	d202      	bcs.n	1c20 <_sbrk+0x14>
    1c1a:	4618      	mov	r0, r3
    1c1c:	6011      	str	r1, [r2, #0]
    1c1e:	4770      	bx	lr
    1c20:	4b03      	ldr	r3, [pc, #12]	; (1c30 <_sbrk+0x24>)
    1c22:	220c      	movs	r2, #12
    1c24:	601a      	str	r2, [r3, #0]
    1c26:	f04f 30ff 	mov.w	r0, #4294967295
    1c2a:	4770      	bx	lr
    1c2c:	100000d0 	.word	0x100000d0
    1c30:	1000043c 	.word	0x1000043c

00001c34 <_exit>:
    1c34:	4c0b      	ldr	r4, [pc, #44]	; (1c64 <_exit+0x30>)
    1c36:	b508      	push	{r3, lr}
    1c38:	6823      	ldr	r3, [r4, #0]
    1c3a:	4605      	mov	r5, r0
    1c3c:	6898      	ldr	r0, [r3, #8]
    1c3e:	f000 ffe7 	bl	2c10 <fflush>
    1c42:	6823      	ldr	r3, [r4, #0]
    1c44:	68d8      	ldr	r0, [r3, #12]
    1c46:	f000 ffe3 	bl	2c10 <fflush>
    1c4a:	f7fe fdc3 	bl	7d4 <mbed_interface_connected>
    1c4e:	b920      	cbnz	r0, 1c5a <_exit+0x26>
    1c50:	b905      	cbnz	r5, 1c54 <_exit+0x20>
    1c52:	e7fe      	b.n	1c52 <_exit+0x1e>
    1c54:	f7fe fd2e 	bl	6b4 <mbed_die>
    1c58:	e7fb      	b.n	1c52 <_exit+0x1e>
    1c5a:	f7fe fe1f 	bl	89c <semihost_exit>
    1c5e:	2d00      	cmp	r5, #0
    1c60:	d0f7      	beq.n	1c52 <_exit+0x1e>
    1c62:	e7f7      	b.n	1c54 <_exit+0x20>
    1c64:	10000134 	.word	0x10000134

00001c68 <mbed::mbed_set_unbuffered_stream(__sFILE*)>:
    1c68:	2100      	movs	r1, #0
    1c6a:	f001 bf6f 	b.w	3b4c <setbuf>
    1c6e:	bf00      	nop

00001c70 <mbed::SerialBase::_irq_handler(unsigned long, SerialIrq)>:
    1c70:	1c4a      	adds	r2, r1, #1
    1c72:	eb02 0242 	add.w	r2, r2, r2, lsl #1
    1c76:	eb00 02c2 	add.w	r2, r0, r2, lsl #3
    1c7a:	6893      	ldr	r3, [r2, #8]
    1c7c:	b153      	cbz	r3, 1c94 <mbed::SerialBase::_irq_handler(unsigned long, SerialIrq)+0x24>
    1c7e:	eb01 0141 	add.w	r1, r1, r1, lsl #1
    1c82:	00c9      	lsls	r1, r1, #3
    1c84:	1842      	adds	r2, r0, r1
    1c86:	68d2      	ldr	r2, [r2, #12]
    1c88:	b11a      	cbz	r2, 1c92 <mbed::SerialBase::_irq_handler(unsigned long, SerialIrq)+0x22>
    1c8a:	4401      	add	r1, r0
    1c8c:	3110      	adds	r1, #16
    1c8e:	4610      	mov	r0, r2
    1c90:	4718      	bx	r3
    1c92:	4770      	bx	lr
    1c94:	eb01 0341 	add.w	r3, r1, r1, lsl #1
    1c98:	eb00 01c3 	add.w	r1, r0, r3, lsl #3
    1c9c:	68cb      	ldr	r3, [r1, #12]
    1c9e:	2b00      	cmp	r3, #0
    1ca0:	d0f7      	beq.n	1c92 <mbed::SerialBase::_irq_handler(unsigned long, SerialIrq)+0x22>
    1ca2:	4718      	bx	r3

00001ca4 <mbed::SerialBase::SerialBase(PinName, PinName)>:
    1ca4:	b570      	push	{r4, r5, r6, lr}
    1ca6:	4604      	mov	r4, r0
    1ca8:	4e0b      	ldr	r6, [pc, #44]	; (1cd8 <mbed::SerialBase::SerialBase(PinName, PinName)+0x34>)
    1caa:	2300      	movs	r3, #0
    1cac:	1d25      	adds	r5, r4, #4
    1cae:	f44f 5016 	mov.w	r0, #9600	; 0x2580
    1cb2:	63e0      	str	r0, [r4, #60]	; 0x3c
    1cb4:	6063      	str	r3, [r4, #4]
    1cb6:	4628      	mov	r0, r5
    1cb8:	60a3      	str	r3, [r4, #8]
    1cba:	60e3      	str	r3, [r4, #12]
    1cbc:	6223      	str	r3, [r4, #32]
    1cbe:	6263      	str	r3, [r4, #36]	; 0x24
    1cc0:	63a3      	str	r3, [r4, #56]	; 0x38
    1cc2:	6026      	str	r6, [r4, #0]
    1cc4:	f7ff fbdc 	bl	1480 <serial_init>
    1cc8:	4628      	mov	r0, r5
    1cca:	4622      	mov	r2, r4
    1ccc:	4903      	ldr	r1, [pc, #12]	; (1cdc <mbed::SerialBase::SerialBase(PinName, PinName)+0x38>)
    1cce:	f7ff fad1 	bl	1274 <serial_irq_handler>
    1cd2:	4620      	mov	r0, r4
    1cd4:	bd70      	pop	{r4, r5, r6, pc}
    1cd6:	bf00      	nop
    1cd8:	00004de4 	.word	0x00004de4
    1cdc:	00001c71 	.word	0x00001c71

00001ce0 <mbed::SerialBase::_base_getc()>:
    1ce0:	3004      	adds	r0, #4
    1ce2:	f7ff bad7 	b.w	1294 <serial_getc>
    1ce6:	bf00      	nop

00001ce8 <mbed::SerialBase::_base_putc(int)>:
    1ce8:	b510      	push	{r4, lr}
    1cea:	460c      	mov	r4, r1
    1cec:	3004      	adds	r0, #4
    1cee:	f7ff fb19 	bl	1324 <serial_putc>
    1cf2:	4620      	mov	r0, r4
    1cf4:	bd10      	pop	{r4, pc}
    1cf6:	bf00      	nop

00001cf8 <mbed::Serial::_getc()>:
    1cf8:	f7ff bff2 	b.w	1ce0 <mbed::SerialBase::_base_getc()>

00001cfc <non-virtual thunk to mbed::Serial::_getc()>:
    1cfc:	f1a0 0040 	sub.w	r0, r0, #64	; 0x40
    1d00:	f7ff bffa 	b.w	1cf8 <mbed::Serial::_getc()>

00001d04 <mbed::Serial::_putc(int)>:
    1d04:	f7ff bff0 	b.w	1ce8 <mbed::SerialBase::_base_putc(int)>

00001d08 <non-virtual thunk to mbed::Serial::_putc(int)>:
    1d08:	f1a0 0040 	sub.w	r0, r0, #64	; 0x40
    1d0c:	f7ff bffa 	b.w	1d04 <mbed::Serial::_putc(int)>

00001d10 <mbed::Serial::Serial(PinName, PinName, char const*)>:
    1d10:	b538      	push	{r3, r4, r5, lr}
    1d12:	4604      	mov	r4, r0
    1d14:	461d      	mov	r5, r3
    1d16:	f7ff ffc5 	bl	1ca4 <mbed::SerialBase::SerialBase(PinName, PinName)>
    1d1a:	4629      	mov	r1, r5
    1d1c:	f104 0040 	add.w	r0, r4, #64	; 0x40
    1d20:	f000 f840 	bl	1da4 <mbed::Stream::Stream(char const*)>
    1d24:	4b05      	ldr	r3, [pc, #20]	; (1d3c <mbed::Serial::Serial(PinName, PinName, char const*)+0x2c>)
    1d26:	4620      	mov	r0, r4
    1d28:	f103 0108 	add.w	r1, r3, #8
    1d2c:	f103 0220 	add.w	r2, r3, #32
    1d30:	3354      	adds	r3, #84	; 0x54
    1d32:	6021      	str	r1, [r4, #0]
    1d34:	6422      	str	r2, [r4, #64]	; 0x40
    1d36:	6463      	str	r3, [r4, #68]	; 0x44
    1d38:	bd38      	pop	{r3, r4, r5, pc}
    1d3a:	bf00      	nop
    1d3c:	00004dec 	.word	0x00004dec

00001d40 <mbed::Stream::write(void const*, unsigned int)>:
    1d40:	b5f8      	push	{r3, r4, r5, r6, r7, lr}
    1d42:	188e      	adds	r6, r1, r2
    1d44:	42b1      	cmp	r1, r6
    1d46:	460f      	mov	r7, r1
    1d48:	d00e      	beq.n	1d68 <mbed::Stream::write(void const*, unsigned int)+0x28>
    1d4a:	4605      	mov	r5, r0
    1d4c:	460c      	mov	r4, r1
    1d4e:	e001      	b.n	1d54 <mbed::Stream::write(void const*, unsigned int)+0x14>
    1d50:	42a6      	cmp	r6, r4
    1d52:	d007      	beq.n	1d64 <mbed::Stream::write(void const*, unsigned int)+0x24>
    1d54:	682b      	ldr	r3, [r5, #0]
    1d56:	f814 1b01 	ldrb.w	r1, [r4], #1
    1d5a:	6a5b      	ldr	r3, [r3, #36]	; 0x24
    1d5c:	4628      	mov	r0, r5
    1d5e:	4798      	blx	r3
    1d60:	3001      	adds	r0, #1
    1d62:	d1f5      	bne.n	1d50 <mbed::Stream::write(void const*, unsigned int)+0x10>
    1d64:	1be0      	subs	r0, r4, r7
    1d66:	bdf8      	pop	{r3, r4, r5, r6, r7, pc}
    1d68:	460c      	mov	r4, r1
    1d6a:	e7fb      	b.n	1d64 <mbed::Stream::write(void const*, unsigned int)+0x24>

00001d6c <mbed::Stream::read(void*, unsigned int)>:
    1d6c:	b5f8      	push	{r3, r4, r5, r6, r7, lr}
    1d6e:	188e      	adds	r6, r1, r2
    1d70:	42b1      	cmp	r1, r6
    1d72:	460f      	mov	r7, r1
    1d74:	d00e      	beq.n	1d94 <mbed::Stream::read(void*, unsigned int)+0x28>
    1d76:	4605      	mov	r5, r0
    1d78:	460c      	mov	r4, r1
    1d7a:	e003      	b.n	1d84 <mbed::Stream::read(void*, unsigned int)+0x18>
    1d7c:	f804 0b01 	strb.w	r0, [r4], #1
    1d80:	42a6      	cmp	r6, r4
    1d82:	d005      	beq.n	1d90 <mbed::Stream::read(void*, unsigned int)+0x24>
    1d84:	682b      	ldr	r3, [r5, #0]
    1d86:	4628      	mov	r0, r5
    1d88:	6a9b      	ldr	r3, [r3, #40]	; 0x28
    1d8a:	4798      	blx	r3
    1d8c:	1c43      	adds	r3, r0, #1
    1d8e:	d1f5      	bne.n	1d7c <mbed::Stream::read(void*, unsigned int)+0x10>
    1d90:	1be0      	subs	r0, r4, r7
    1d92:	bdf8      	pop	{r3, r4, r5, r6, r7, pc}
    1d94:	460c      	mov	r4, r1
    1d96:	e7fb      	b.n	1d90 <mbed::Stream::read(void*, unsigned int)+0x24>

00001d98 <mbed::Stream::lseek(long, int)>:
    1d98:	2000      	movs	r0, #0
    1d9a:	4770      	bx	lr

00001d9c <mbed::Stream::close()>:
    1d9c:	2000      	movs	r0, #0
    1d9e:	4770      	bx	lr

00001da0 <mbed::Stream::flen()>:
    1da0:	2000      	movs	r0, #0
    1da2:	4770      	bx	lr

00001da4 <mbed::Stream::Stream(char const*)>:
    1da4:	b510      	push	{r4, lr}
    1da6:	4604      	mov	r4, r0
    1da8:	b084      	sub	sp, #16
    1daa:	f7ff fd11 	bl	17d0 <mbed::FileLike::FileLike(char const*)>
    1dae:	4b0b      	ldr	r3, [pc, #44]	; (1ddc <mbed::Stream::Stream(char const*)+0x38>)
    1db0:	2200      	movs	r2, #0
    1db2:	f103 0108 	add.w	r1, r3, #8
    1db6:	333c      	adds	r3, #60	; 0x3c
    1db8:	e884 000a 	stmia.w	r4, {r1, r3}
    1dbc:	6162      	str	r2, [r4, #20]
    1dbe:	a801      	add	r0, sp, #4
    1dc0:	4622      	mov	r2, r4
    1dc2:	4907      	ldr	r1, [pc, #28]	; (1de0 <mbed::Stream::Stream(char const*)+0x3c>)
    1dc4:	f001 ff52 	bl	3c6c <siprintf>
    1dc8:	4906      	ldr	r1, [pc, #24]	; (1de4 <mbed::Stream::Stream(char const*)+0x40>)
    1dca:	a801      	add	r0, sp, #4
    1dcc:	f001 f820 	bl	2e10 <fopen>
    1dd0:	6160      	str	r0, [r4, #20]
    1dd2:	f7ff ff49 	bl	1c68 <mbed::mbed_set_unbuffered_stream(__sFILE*)>
    1dd6:	4620      	mov	r0, r4
    1dd8:	b004      	add	sp, #16
    1dda:	bd10      	pop	{r4, pc}
    1ddc:	00004e48 	.word	0x00004e48
    1de0:	00004dcc 	.word	0x00004dcc
    1de4:	00004e8c 	.word	0x00004e8c

00001de8 <mbed::Stream::~Stream()>:
    1de8:	b510      	push	{r4, lr}
    1dea:	4604      	mov	r4, r0
    1dec:	4b06      	ldr	r3, [pc, #24]	; (1e08 <mbed::Stream::~Stream()+0x20>)
    1dee:	6940      	ldr	r0, [r0, #20]
    1df0:	f103 0208 	add.w	r2, r3, #8
    1df4:	333c      	adds	r3, #60	; 0x3c
    1df6:	e884 000c 	stmia.w	r4, {r2, r3}
    1dfa:	f000 fe51 	bl	2aa0 <fclose>
    1dfe:	4620      	mov	r0, r4
    1e00:	f7ff fcfa 	bl	17f8 <mbed::FileLike::~FileLike()>
    1e04:	4620      	mov	r0, r4
    1e06:	bd10      	pop	{r4, pc}
    1e08:	00004e48 	.word	0x00004e48

00001e0c <mbed::Stream::printf(char const*, ...)>:
    1e0c:	b40e      	push	{r1, r2, r3}
    1e0e:	b530      	push	{r4, r5, lr}
    1e10:	4604      	mov	r4, r0
    1e12:	b082      	sub	sp, #8
    1e14:	ab05      	add	r3, sp, #20
    1e16:	f853 5b04 	ldr.w	r5, [r3], #4
    1e1a:	6940      	ldr	r0, [r0, #20]
    1e1c:	9301      	str	r3, [sp, #4]
    1e1e:	f000 fef7 	bl	2c10 <fflush>
    1e22:	4629      	mov	r1, r5
    1e24:	6960      	ldr	r0, [r4, #20]
    1e26:	9a01      	ldr	r2, [sp, #4]
    1e28:	f001 fb40 	bl	34ac <vfiprintf>
    1e2c:	b002      	add	sp, #8
    1e2e:	e8bd 4030 	ldmia.w	sp!, {r4, r5, lr}
    1e32:	b003      	add	sp, #12
    1e34:	4770      	bx	lr
    1e36:	bf00      	nop

00001e38 <Reset_Handler>:
    1e38:	4906      	ldr	r1, [pc, #24]	; (1e54 <Reset_Handler+0x1c>)
    1e3a:	4a07      	ldr	r2, [pc, #28]	; (1e58 <Reset_Handler+0x20>)
    1e3c:	4b07      	ldr	r3, [pc, #28]	; (1e5c <Reset_Handler+0x24>)
    1e3e:	429a      	cmp	r2, r3
    1e40:	bfbe      	ittt	lt
    1e42:	f851 0b04 	ldrlt.w	r0, [r1], #4
    1e46:	f842 0b04 	strlt.w	r0, [r2], #4
    1e4a:	e7f8      	blt.n	1e3e <Reset_Handler+0x6>
    1e4c:	4804      	ldr	r0, [pc, #16]	; (1e60 <Reset_Handler+0x28>)
    1e4e:	4780      	blx	r0
    1e50:	4804      	ldr	r0, [pc, #16]	; (1e64 <Reset_Handler+0x2c>)
    1e52:	4700      	bx	r0
    1e54:	00005058 	.word	0x00005058
    1e58:	100000c8 	.word	0x100000c8
    1e5c:	10000148 	.word	0x10000148
    1e60:	00000995 	.word	0x00000995
    1e64:	00000659 	.word	0x00000659

00001e68 <NMI_Handler>:
    1e68:	e7fe      	b.n	1e68 <NMI_Handler>

00001e6a <HardFault_Handler>:
    1e6a:	e7fe      	b.n	1e6a <HardFault_Handler>

00001e6c <MemManage_Handler>:
    1e6c:	e7fe      	b.n	1e6c <MemManage_Handler>

00001e6e <BusFault_Handler>:
    1e6e:	e7fe      	b.n	1e6e <BusFault_Handler>

00001e70 <UsageFault_Handler>:
    1e70:	e7fe      	b.n	1e70 <UsageFault_Handler>

00001e72 <SVC_Handler>:
    1e72:	e7fe      	b.n	1e72 <SVC_Handler>

00001e74 <DebugMon_Handler>:
    1e74:	e7fe      	b.n	1e74 <DebugMon_Handler>

00001e76 <PendSV_Handler>:
    1e76:	e7fe      	b.n	1e76 <PendSV_Handler>

00001e78 <SysTick_Handler>:
    1e78:	e7fe      	b.n	1e78 <SysTick_Handler>

00001e7a <ADC_IRQHandler>:
    1e7a:	e7fe      	b.n	1e7a <ADC_IRQHandler>

00001e7c <__aeabi_atexit>:
    1e7c:	460b      	mov	r3, r1
    1e7e:	4601      	mov	r1, r0
    1e80:	4618      	mov	r0, r3
    1e82:	f000 bd93 	b.w	29ac <__cxa_atexit>

00001e86 <operator delete(void*)>:
    1e86:	f7fe bc07 	b.w	698 <__wrap_free>
	...

00001e8c <__aeabi_drsub>:
    1e8c:	f081 4100 	eor.w	r1, r1, #2147483648	; 0x80000000
    1e90:	e002      	b.n	1e98 <__adddf3>
    1e92:	bf00      	nop

00001e94 <__aeabi_dsub>:
    1e94:	f083 4300 	eor.w	r3, r3, #2147483648	; 0x80000000

00001e98 <__adddf3>:
    1e98:	b530      	push	{r4, r5, lr}
    1e9a:	ea4f 0441 	mov.w	r4, r1, lsl #1
    1e9e:	ea4f 0543 	mov.w	r5, r3, lsl #1
    1ea2:	ea94 0f05 	teq	r4, r5
    1ea6:	bf08      	it	eq
    1ea8:	ea90 0f02 	teqeq	r0, r2
    1eac:	bf1f      	itttt	ne
    1eae:	ea54 0c00 	orrsne.w	r12, r4, r0
    1eb2:	ea55 0c02 	orrsne.w	r12, r5, r2
    1eb6:	ea7f 5c64 	mvnsne.w	r12, r4, asr #21
    1eba:	ea7f 5c65 	mvnsne.w	r12, r5, asr #21
    1ebe:	f000 80e2 	beq.w	2086 <__adddf3+0x1ee>
    1ec2:	ea4f 5454 	mov.w	r4, r4, lsr #21
    1ec6:	ebd4 5555 	rsbs	r5, r4, r5, lsr #21
    1eca:	bfb8      	it	lt
    1ecc:	426d      	neglt	r5, r5
    1ece:	dd0c      	ble.n	1eea <__adddf3+0x52>
    1ed0:	442c      	add	r4, r5
    1ed2:	ea80 0202 	eor.w	r2, r0, r2
    1ed6:	ea81 0303 	eor.w	r3, r1, r3
    1eda:	ea82 0000 	eor.w	r0, r2, r0
    1ede:	ea83 0101 	eor.w	r1, r3, r1
    1ee2:	ea80 0202 	eor.w	r2, r0, r2
    1ee6:	ea81 0303 	eor.w	r3, r1, r3
    1eea:	2d36      	cmp	r5, #54	; 0x36
    1eec:	bf88      	it	hi
    1eee:	bd30      	pophi	{r4, r5, pc}
    1ef0:	f011 4f00 	tst.w	r1, #2147483648	; 0x80000000
    1ef4:	ea4f 3101 	mov.w	r1, r1, lsl #12
    1ef8:	f44f 1c80 	mov.w	r12, #1048576	; 0x100000
    1efc:	ea4c 3111 	orr.w	r1, r12, r1, lsr #12
    1f00:	d002      	beq.n	1f08 <__adddf3+0x70>
    1f02:	4240      	negs	r0, r0
    1f04:	eb61 0141 	sbc.w	r1, r1, r1, lsl #1
    1f08:	f013 4f00 	tst.w	r3, #2147483648	; 0x80000000
    1f0c:	ea4f 3303 	mov.w	r3, r3, lsl #12
    1f10:	ea4c 3313 	orr.w	r3, r12, r3, lsr #12
    1f14:	d002      	beq.n	1f1c <__adddf3+0x84>
    1f16:	4252      	negs	r2, r2
    1f18:	eb63 0343 	sbc.w	r3, r3, r3, lsl #1
    1f1c:	ea94 0f05 	teq	r4, r5
    1f20:	f000 80a7 	beq.w	2072 <__adddf3+0x1da>
    1f24:	f1a4 0401 	sub.w	r4, r4, #1
    1f28:	f1d5 0e20 	rsbs	lr, r5, #32
    1f2c:	db0d      	blt.n	1f4a <__adddf3+0xb2>
    1f2e:	fa02 fc0e 	lsl.w	r12, r2, lr
    1f32:	fa22 f205 	lsr.w	r2, r2, r5
    1f36:	1880      	adds	r0, r0, r2
    1f38:	f141 0100 	adc.w	r1, r1, #0
    1f3c:	fa03 f20e 	lsl.w	r2, r3, lr
    1f40:	1880      	adds	r0, r0, r2
    1f42:	fa43 f305 	asr.w	r3, r3, r5
    1f46:	4159      	adcs	r1, r3
    1f48:	e00e      	b.n	1f68 <__adddf3+0xd0>
    1f4a:	f1a5 0520 	sub.w	r5, r5, #32
    1f4e:	f10e 0e20 	add.w	lr, lr, #32
    1f52:	2a01      	cmp	r2, #1
    1f54:	fa03 fc0e 	lsl.w	r12, r3, lr
    1f58:	bf28      	it	cs
    1f5a:	f04c 0c02 	orrcs.w	r12, r12, #2
    1f5e:	fa43 f305 	asr.w	r3, r3, r5
    1f62:	18c0      	adds	r0, r0, r3
    1f64:	eb51 71e3 	adcs.w	r1, r1, r3, asr #31
    1f68:	f001 4500 	and.w	r5, r1, #2147483648	; 0x80000000
    1f6c:	d507      	bpl.n	1f7e <__adddf3+0xe6>
    1f6e:	f04f 0e00 	mov.w	lr, #0
    1f72:	f1dc 0c00 	rsbs	r12, r12, #0
    1f76:	eb7e 0000 	sbcs.w	r0, lr, r0
    1f7a:	eb6e 0101 	sbc.w	r1, lr, r1
    1f7e:	f5b1 1f80 	cmp.w	r1, #1048576	; 0x100000
    1f82:	d31b      	bcc.n	1fbc <__adddf3+0x124>
    1f84:	f5b1 1f00 	cmp.w	r1, #2097152	; 0x200000
    1f88:	d30c      	bcc.n	1fa4 <__adddf3+0x10c>
    1f8a:	0849      	lsrs	r1, r1, #1
    1f8c:	ea5f 0030 	movs.w	r0, r0, rrx
    1f90:	ea4f 0c3c 	mov.w	r12, r12, rrx
    1f94:	f104 0401 	add.w	r4, r4, #1
    1f98:	ea4f 5244 	mov.w	r2, r4, lsl #21
    1f9c:	f512 0f80 	cmn.w	r2, #4194304	; 0x400000
    1fa0:	f080 809a 	bcs.w	20d8 <__adddf3+0x240>
    1fa4:	f1bc 4f00 	cmp.w	r12, #2147483648	; 0x80000000
    1fa8:	bf08      	it	eq
    1faa:	ea5f 0c50 	movseq.w	r12, r0, lsr #1
    1fae:	f150 0000 	adcs.w	r0, r0, #0
    1fb2:	eb41 5104 	adc.w	r1, r1, r4, lsl #20
    1fb6:	ea41 0105 	orr.w	r1, r1, r5
    1fba:	bd30      	pop	{r4, r5, pc}
    1fbc:	ea5f 0c4c 	movs.w	r12, r12, lsl #1
    1fc0:	4140      	adcs	r0, r0
    1fc2:	eb41 0101 	adc.w	r1, r1, r1
    1fc6:	f411 1f80 	tst.w	r1, #1048576	; 0x100000
    1fca:	f1a4 0401 	sub.w	r4, r4, #1
    1fce:	d1e9      	bne.n	1fa4 <__adddf3+0x10c>
    1fd0:	f091 0f00 	teq	r1, #0
    1fd4:	bf04      	itt	eq
    1fd6:	4601      	moveq	r1, r0
    1fd8:	2000      	moveq	r0, #0
    1fda:	fab1 f381 	clz	r3, r1
    1fde:	bf08      	it	eq
    1fe0:	3320      	addeq	r3, #32
    1fe2:	f1a3 030b 	sub.w	r3, r3, #11
    1fe6:	f1b3 0220 	subs.w	r2, r3, #32
    1fea:	da0c      	bge.n	2006 <__adddf3+0x16e>
    1fec:	320c      	adds	r2, #12
    1fee:	dd08      	ble.n	2002 <__adddf3+0x16a>
    1ff0:	f102 0c14 	add.w	r12, r2, #20
    1ff4:	f1c2 020c 	rsb	r2, r2, #12
    1ff8:	fa01 f00c 	lsl.w	r0, r1, r12
    1ffc:	fa21 f102 	lsr.w	r1, r1, r2
    2000:	e00c      	b.n	201c <__adddf3+0x184>
    2002:	f102 0214 	add.w	r2, r2, #20
    2006:	bfd8      	it	le
    2008:	f1c2 0c20 	rsble	r12, r2, #32
    200c:	fa01 f102 	lsl.w	r1, r1, r2
    2010:	fa20 fc0c 	lsr.w	r12, r0, r12
    2014:	bfdc      	itt	le
    2016:	ea41 010c 	orrle.w	r1, r1, r12
    201a:	4090      	lslle	r0, r2
    201c:	1ae4      	subs	r4, r4, r3
    201e:	bfa2      	ittt	ge
    2020:	eb01 5104 	addge.w	r1, r1, r4, lsl #20
    2024:	4329      	orrge	r1, r5
    2026:	bd30      	popge	{r4, r5, pc}
    2028:	ea6f 0404 	mvn.w	r4, r4
    202c:	3c1f      	subs	r4, #31
    202e:	da1c      	bge.n	206a <__adddf3+0x1d2>
    2030:	340c      	adds	r4, #12
    2032:	dc0e      	bgt.n	2052 <__adddf3+0x1ba>
    2034:	f104 0414 	add.w	r4, r4, #20
    2038:	f1c4 0220 	rsb	r2, r4, #32
    203c:	fa20 f004 	lsr.w	r0, r0, r4
    2040:	fa01 f302 	lsl.w	r3, r1, r2
    2044:	ea40 0003 	orr.w	r0, r0, r3
    2048:	fa21 f304 	lsr.w	r3, r1, r4
    204c:	ea45 0103 	orr.w	r1, r5, r3
    2050:	bd30      	pop	{r4, r5, pc}
    2052:	f1c4 040c 	rsb	r4, r4, #12
    2056:	f1c4 0220 	rsb	r2, r4, #32
    205a:	fa20 f002 	lsr.w	r0, r0, r2
    205e:	fa01 f304 	lsl.w	r3, r1, r4
    2062:	ea40 0003 	orr.w	r0, r0, r3
    2066:	4629      	mov	r1, r5
    2068:	bd30      	pop	{r4, r5, pc}
    206a:	fa21 f004 	lsr.w	r0, r1, r4
    206e:	4629      	mov	r1, r5
    2070:	bd30      	pop	{r4, r5, pc}
    2072:	f094 0f00 	teq	r4, #0
    2076:	f483 1380 	eor.w	r3, r3, #1048576	; 0x100000
    207a:	bf06      	itte	eq
    207c:	f481 1180 	eoreq.w	r1, r1, #1048576	; 0x100000
    2080:	3401      	addeq	r4, #1
    2082:	3d01      	subne	r5, #1
    2084:	e74e      	b.n	1f24 <__adddf3+0x8c>
    2086:	ea7f 5c64 	mvns.w	r12, r4, asr #21
    208a:	bf18      	it	ne
    208c:	ea7f 5c65 	mvnsne.w	r12, r5, asr #21
    2090:	d029      	beq.n	20e6 <__adddf3+0x24e>
    2092:	ea94 0f05 	teq	r4, r5
    2096:	bf08      	it	eq
    2098:	ea90 0f02 	teqeq	r0, r2
    209c:	d005      	beq.n	20aa <__adddf3+0x212>
    209e:	ea54 0c00 	orrs.w	r12, r4, r0
    20a2:	bf04      	itt	eq
    20a4:	4619      	moveq	r1, r3
    20a6:	4610      	moveq	r0, r2
    20a8:	bd30      	pop	{r4, r5, pc}
    20aa:	ea91 0f03 	teq	r1, r3
    20ae:	bf1e      	ittt	ne
    20b0:	2100      	movne	r1, #0
    20b2:	2000      	movne	r0, #0
    20b4:	bd30      	popne	{r4, r5, pc}
    20b6:	ea5f 5c54 	movs.w	r12, r4, lsr #21
    20ba:	d105      	bne.n	20c8 <__adddf3+0x230>
    20bc:	0040      	lsls	r0, r0, #1
    20be:	4149      	adcs	r1, r1
    20c0:	bf28      	it	cs
    20c2:	f041 4100 	orrcs.w	r1, r1, #2147483648	; 0x80000000
    20c6:	bd30      	pop	{r4, r5, pc}
    20c8:	f514 0480 	adds.w	r4, r4, #4194304	; 0x400000
    20cc:	bf3c      	itt	cc
    20ce:	f501 1180 	addcc.w	r1, r1, #1048576	; 0x100000
    20d2:	bd30      	popcc	{r4, r5, pc}
    20d4:	f001 4500 	and.w	r5, r1, #2147483648	; 0x80000000
    20d8:	f045 41fe 	orr.w	r1, r5, #2130706432	; 0x7f000000
    20dc:	f441 0170 	orr.w	r1, r1, #15728640	; 0xf00000
    20e0:	f04f 0000 	mov.w	r0, #0
    20e4:	bd30      	pop	{r4, r5, pc}
    20e6:	ea7f 5c64 	mvns.w	r12, r4, asr #21
    20ea:	bf1a      	itte	ne
    20ec:	4619      	movne	r1, r3
    20ee:	4610      	movne	r0, r2
    20f0:	ea7f 5c65 	mvnseq.w	r12, r5, asr #21
    20f4:	bf1c      	itt	ne
    20f6:	460b      	movne	r3, r1
    20f8:	4602      	movne	r2, r0
    20fa:	ea50 3401 	orrs.w	r4, r0, r1, lsl #12
    20fe:	bf06      	itte	eq
    2100:	ea52 3503 	orrseq.w	r5, r2, r3, lsl #12
    2104:	ea91 0f03 	teqeq	r1, r3
    2108:	f441 2100 	orrne.w	r1, r1, #524288	; 0x80000
    210c:	bd30      	pop	{r4, r5, pc}
    210e:	bf00      	nop

00002110 <__aeabi_ui2d>:
    2110:	f090 0f00 	teq	r0, #0
    2114:	bf04      	itt	eq
    2116:	2100      	moveq	r1, #0
    2118:	4770      	bxeq	lr
    211a:	b530      	push	{r4, r5, lr}
    211c:	f44f 6480 	mov.w	r4, #1024	; 0x400
    2120:	f104 0432 	add.w	r4, r4, #50	; 0x32
    2124:	f04f 0500 	mov.w	r5, #0
    2128:	f04f 0100 	mov.w	r1, #0
    212c:	e750      	b.n	1fd0 <__adddf3+0x138>
    212e:	bf00      	nop

00002130 <__aeabi_i2d>:
    2130:	f090 0f00 	teq	r0, #0
    2134:	bf04      	itt	eq
    2136:	2100      	moveq	r1, #0
    2138:	4770      	bxeq	lr
    213a:	b530      	push	{r4, r5, lr}
    213c:	f44f 6480 	mov.w	r4, #1024	; 0x400
    2140:	f104 0432 	add.w	r4, r4, #50	; 0x32
    2144:	f010 4500 	ands.w	r5, r0, #2147483648	; 0x80000000
    2148:	bf48      	it	mi
    214a:	4240      	negmi	r0, r0
    214c:	f04f 0100 	mov.w	r1, #0
    2150:	e73e      	b.n	1fd0 <__adddf3+0x138>
    2152:	bf00      	nop

00002154 <__aeabi_f2d>:
    2154:	0042      	lsls	r2, r0, #1
    2156:	ea4f 01e2 	mov.w	r1, r2, asr #3
    215a:	ea4f 0131 	mov.w	r1, r1, rrx
    215e:	ea4f 7002 	mov.w	r0, r2, lsl #28
    2162:	bf1f      	itttt	ne
    2164:	f012 437f 	andsne.w	r3, r2, #4278190080	; 0xff000000
    2168:	f093 4f7f 	teqne	r3, #4278190080	; 0xff000000
    216c:	f081 5160 	eorne.w	r1, r1, #939524096	; 0x38000000
    2170:	4770      	bxne	lr
    2172:	f092 0f00 	teq	r2, #0
    2176:	bf14      	ite	ne
    2178:	f093 4f7f 	teqne	r3, #4278190080	; 0xff000000
    217c:	4770      	bxeq	lr
    217e:	b530      	push	{r4, r5, lr}
    2180:	f44f 7460 	mov.w	r4, #896	; 0x380
    2184:	f001 4500 	and.w	r5, r1, #2147483648	; 0x80000000
    2188:	f021 4100 	bic.w	r1, r1, #2147483648	; 0x80000000
    218c:	e720      	b.n	1fd0 <__adddf3+0x138>
    218e:	bf00      	nop

00002190 <__aeabi_ul2d>:
    2190:	ea50 0201 	orrs.w	r2, r0, r1
    2194:	bf08      	it	eq
    2196:	4770      	bxeq	lr
    2198:	b530      	push	{r4, r5, lr}
    219a:	f04f 0500 	mov.w	r5, #0
    219e:	e00a      	b.n	21b6 <__aeabi_l2d+0x16>

000021a0 <__aeabi_l2d>:
    21a0:	ea50 0201 	orrs.w	r2, r0, r1
    21a4:	bf08      	it	eq
    21a6:	4770      	bxeq	lr
    21a8:	b530      	push	{r4, r5, lr}
    21aa:	f011 4500 	ands.w	r5, r1, #2147483648	; 0x80000000
    21ae:	d502      	bpl.n	21b6 <__aeabi_l2d+0x16>
    21b0:	4240      	negs	r0, r0
    21b2:	eb61 0141 	sbc.w	r1, r1, r1, lsl #1
    21b6:	f44f 6480 	mov.w	r4, #1024	; 0x400
    21ba:	f104 0432 	add.w	r4, r4, #50	; 0x32
    21be:	ea5f 5c91 	movs.w	r12, r1, lsr #22
    21c2:	f43f aedc 	beq.w	1f7e <__adddf3+0xe6>
    21c6:	f04f 0203 	mov.w	r2, #3
    21ca:	ea5f 0cdc 	movs.w	r12, r12, lsr #3
    21ce:	bf18      	it	ne
    21d0:	3203      	addne	r2, #3
    21d2:	ea5f 0cdc 	movs.w	r12, r12, lsr #3
    21d6:	bf18      	it	ne
    21d8:	3203      	addne	r2, #3
    21da:	eb02 02dc 	add.w	r2, r2, r12, lsr #3
    21de:	f1c2 0320 	rsb	r3, r2, #32
    21e2:	fa00 fc03 	lsl.w	r12, r0, r3
    21e6:	fa20 f002 	lsr.w	r0, r0, r2
    21ea:	fa01 fe03 	lsl.w	lr, r1, r3
    21ee:	ea40 000e 	orr.w	r0, r0, lr
    21f2:	fa21 f102 	lsr.w	r1, r1, r2
    21f6:	4414      	add	r4, r2
    21f8:	e6c1      	b.n	1f7e <__adddf3+0xe6>
    21fa:	bf00      	nop

000021fc <__aeabi_dmul>:
    21fc:	b570      	push	{r4, r5, r6, lr}
    21fe:	f04f 0cff 	mov.w	r12, #255	; 0xff
    2202:	f44c 6ce0 	orr.w	r12, r12, #1792	; 0x700
    2206:	ea1c 5411 	ands.w	r4, r12, r1, lsr #20
    220a:	bf1d      	ittte	ne
    220c:	ea1c 5513 	andsne.w	r5, r12, r3, lsr #20
    2210:	ea94 0f0c 	teqne	r4, r12
    2214:	ea95 0f0c 	teqne	r5, r12
    2218:	f000 f8de 	bleq	23d8 <__aeabi_dmul+0x1dc>
    221c:	442c      	add	r4, r5
    221e:	ea81 0603 	eor.w	r6, r1, r3
    2222:	ea21 514c 	bic.w	r1, r1, r12, lsl #21
    2226:	ea23 534c 	bic.w	r3, r3, r12, lsl #21
    222a:	ea50 3501 	orrs.w	r5, r0, r1, lsl #12
    222e:	bf18      	it	ne
    2230:	ea52 3503 	orrsne.w	r5, r2, r3, lsl #12
    2234:	f441 1180 	orr.w	r1, r1, #1048576	; 0x100000
    2238:	f443 1380 	orr.w	r3, r3, #1048576	; 0x100000
    223c:	d038      	beq.n	22b0 <__aeabi_dmul+0xb4>
    223e:	fba0 ce02 	umull	r12, lr, r0, r2
    2242:	f04f 0500 	mov.w	r5, #0
    2246:	fbe1 e502 	umlal	lr, r5, r1, r2
    224a:	f006 4200 	and.w	r2, r6, #2147483648	; 0x80000000
    224e:	fbe0 e503 	umlal	lr, r5, r0, r3
    2252:	f04f 0600 	mov.w	r6, #0
    2256:	fbe1 5603 	umlal	r5, r6, r1, r3
    225a:	f09c 0f00 	teq	r12, #0
    225e:	bf18      	it	ne
    2260:	f04e 0e01 	orrne.w	lr, lr, #1
    2264:	f1a4 04ff 	sub.w	r4, r4, #255	; 0xff
    2268:	f5b6 7f00 	cmp.w	r6, #512	; 0x200
    226c:	f564 7440 	sbc.w	r4, r4, #768	; 0x300
    2270:	d204      	bcs.n	227c <__aeabi_dmul+0x80>
    2272:	ea5f 0e4e 	movs.w	lr, lr, lsl #1
    2276:	416d      	adcs	r5, r5
    2278:	eb46 0606 	adc.w	r6, r6, r6
    227c:	ea42 21c6 	orr.w	r1, r2, r6, lsl #11
    2280:	ea41 5155 	orr.w	r1, r1, r5, lsr #21
    2284:	ea4f 20c5 	mov.w	r0, r5, lsl #11
    2288:	ea40 505e 	orr.w	r0, r0, lr, lsr #21
    228c:	ea4f 2ece 	mov.w	lr, lr, lsl #11
    2290:	f1b4 0cfd 	subs.w	r12, r4, #253	; 0xfd
    2294:	bf88      	it	hi
    2296:	f5bc 6fe0 	cmphi.w	r12, #1792	; 0x700
    229a:	d81e      	bhi.n	22da <__aeabi_dmul+0xde>
    229c:	f1be 4f00 	cmp.w	lr, #2147483648	; 0x80000000
    22a0:	bf08      	it	eq
    22a2:	ea5f 0e50 	movseq.w	lr, r0, lsr #1
    22a6:	f150 0000 	adcs.w	r0, r0, #0
    22aa:	eb41 5104 	adc.w	r1, r1, r4, lsl #20
    22ae:	bd70      	pop	{r4, r5, r6, pc}
    22b0:	f006 4600 	and.w	r6, r6, #2147483648	; 0x80000000
    22b4:	ea46 0101 	orr.w	r1, r6, r1
    22b8:	ea40 0002 	orr.w	r0, r0, r2
    22bc:	ea81 0103 	eor.w	r1, r1, r3
    22c0:	ebb4 045c 	subs.w	r4, r4, r12, lsr #1
    22c4:	bfc2      	ittt	gt
    22c6:	ebd4 050c 	rsbsgt	r5, r4, r12
    22ca:	ea41 5104 	orrgt.w	r1, r1, r4, lsl #20
    22ce:	bd70      	popgt	{r4, r5, r6, pc}
    22d0:	f441 1180 	orr.w	r1, r1, #1048576	; 0x100000
    22d4:	f04f 0e00 	mov.w	lr, #0
    22d8:	3c01      	subs	r4, #1
    22da:	f300 80ab 	bgt.w	2434 <__aeabi_dmul+0x238>
    22de:	f114 0f36 	cmn.w	r4, #54	; 0x36
    22e2:	bfde      	ittt	le
    22e4:	2000      	movle	r0, #0
    22e6:	f001 4100 	andle.w	r1, r1, #2147483648	; 0x80000000
    22ea:	bd70      	pople	{r4, r5, r6, pc}
    22ec:	f1c4 0400 	rsb	r4, r4, #0
    22f0:	3c20      	subs	r4, #32
    22f2:	da35      	bge.n	2360 <__aeabi_dmul+0x164>
    22f4:	340c      	adds	r4, #12
    22f6:	dc1b      	bgt.n	2330 <__aeabi_dmul+0x134>
    22f8:	f104 0414 	add.w	r4, r4, #20
    22fc:	f1c4 0520 	rsb	r5, r4, #32
    2300:	fa00 f305 	lsl.w	r3, r0, r5
    2304:	fa20 f004 	lsr.w	r0, r0, r4
    2308:	fa01 f205 	lsl.w	r2, r1, r5
    230c:	ea40 0002 	orr.w	r0, r0, r2
    2310:	f001 4200 	and.w	r2, r1, #2147483648	; 0x80000000
    2314:	f021 4100 	bic.w	r1, r1, #2147483648	; 0x80000000
    2318:	eb10 70d3 	adds.w	r0, r0, r3, lsr #31
    231c:	fa21 f604 	lsr.w	r6, r1, r4
    2320:	eb42 0106 	adc.w	r1, r2, r6
    2324:	ea5e 0e43 	orrs.w	lr, lr, r3, lsl #1
    2328:	bf08      	it	eq
    232a:	ea20 70d3 	biceq.w	r0, r0, r3, lsr #31
    232e:	bd70      	pop	{r4, r5, r6, pc}
    2330:	f1c4 040c 	rsb	r4, r4, #12
    2334:	f1c4 0520 	rsb	r5, r4, #32
    2338:	fa00 f304 	lsl.w	r3, r0, r4
    233c:	fa20 f005 	lsr.w	r0, r0, r5
    2340:	fa01 f204 	lsl.w	r2, r1, r4
    2344:	ea40 0002 	orr.w	r0, r0, r2
    2348:	f001 4100 	and.w	r1, r1, #2147483648	; 0x80000000
    234c:	eb10 70d3 	adds.w	r0, r0, r3, lsr #31
    2350:	f141 0100 	adc.w	r1, r1, #0
    2354:	ea5e 0e43 	orrs.w	lr, lr, r3, lsl #1
    2358:	bf08      	it	eq
    235a:	ea20 70d3 	biceq.w	r0, r0, r3, lsr #31
    235e:	bd70      	pop	{r4, r5, r6, pc}
    2360:	f1c4 0520 	rsb	r5, r4, #32
    2364:	fa00 f205 	lsl.w	r2, r0, r5
    2368:	ea4e 0e02 	orr.w	lr, lr, r2
    236c:	fa20 f304 	lsr.w	r3, r0, r4
    2370:	fa01 f205 	lsl.w	r2, r1, r5
    2374:	ea43 0302 	orr.w	r3, r3, r2
    2378:	fa21 f004 	lsr.w	r0, r1, r4
    237c:	f001 4100 	and.w	r1, r1, #2147483648	; 0x80000000
    2380:	fa21 f204 	lsr.w	r2, r1, r4
    2384:	ea20 0002 	bic.w	r0, r0, r2
    2388:	eb00 70d3 	add.w	r0, r0, r3, lsr #31
    238c:	ea5e 0e43 	orrs.w	lr, lr, r3, lsl #1
    2390:	bf08      	it	eq
    2392:	ea20 70d3 	biceq.w	r0, r0, r3, lsr #31
    2396:	bd70      	pop	{r4, r5, r6, pc}
    2398:	f094 0f00 	teq	r4, #0
    239c:	d10f      	bne.n	23be <__aeabi_dmul+0x1c2>
    239e:	f001 4600 	and.w	r6, r1, #2147483648	; 0x80000000
    23a2:	0040      	lsls	r0, r0, #1
    23a4:	eb41 0101 	adc.w	r1, r1, r1
    23a8:	f411 1f80 	tst.w	r1, #1048576	; 0x100000
    23ac:	bf08      	it	eq
    23ae:	3c01      	subeq	r4, #1
    23b0:	d0f7      	beq.n	23a2 <__aeabi_dmul+0x1a6>
    23b2:	ea41 0106 	orr.w	r1, r1, r6
    23b6:	f095 0f00 	teq	r5, #0
    23ba:	bf18      	it	ne
    23bc:	4770      	bxne	lr
    23be:	f003 4600 	and.w	r6, r3, #2147483648	; 0x80000000
    23c2:	0052      	lsls	r2, r2, #1
    23c4:	eb43 0303 	adc.w	r3, r3, r3
    23c8:	f413 1f80 	tst.w	r3, #1048576	; 0x100000
    23cc:	bf08      	it	eq
    23ce:	3d01      	subeq	r5, #1
    23d0:	d0f7      	beq.n	23c2 <__aeabi_dmul+0x1c6>
    23d2:	ea43 0306 	orr.w	r3, r3, r6
    23d6:	4770      	bx	lr
    23d8:	ea94 0f0c 	teq	r4, r12
    23dc:	ea0c 5513 	and.w	r5, r12, r3, lsr #20
    23e0:	bf18      	it	ne
    23e2:	ea95 0f0c 	teqne	r5, r12
    23e6:	d00c      	beq.n	2402 <__aeabi_dmul+0x206>
    23e8:	ea50 0641 	orrs.w	r6, r0, r1, lsl #1
    23ec:	bf18      	it	ne
    23ee:	ea52 0643 	orrsne.w	r6, r2, r3, lsl #1
    23f2:	d1d1      	bne.n	2398 <__aeabi_dmul+0x19c>
    23f4:	ea81 0103 	eor.w	r1, r1, r3
    23f8:	f001 4100 	and.w	r1, r1, #2147483648	; 0x80000000
    23fc:	f04f 0000 	mov.w	r0, #0
    2400:	bd70      	pop	{r4, r5, r6, pc}
    2402:	ea50 0641 	orrs.w	r6, r0, r1, lsl #1
    2406:	bf06      	itte	eq
    2408:	4610      	moveq	r0, r2
    240a:	4619      	moveq	r1, r3
    240c:	ea52 0643 	orrsne.w	r6, r2, r3, lsl #1
    2410:	d019      	beq.n	2446 <__aeabi_dmul+0x24a>
    2412:	ea94 0f0c 	teq	r4, r12
    2416:	d102      	bne.n	241e <__aeabi_dmul+0x222>
    2418:	ea50 3601 	orrs.w	r6, r0, r1, lsl #12
    241c:	d113      	bne.n	2446 <__aeabi_dmul+0x24a>
    241e:	ea95 0f0c 	teq	r5, r12
    2422:	d105      	bne.n	2430 <__aeabi_dmul+0x234>
    2424:	ea52 3603 	orrs.w	r6, r2, r3, lsl #12
    2428:	bf1c      	itt	ne
    242a:	4610      	movne	r0, r2
    242c:	4619      	movne	r1, r3
    242e:	d10a      	bne.n	2446 <__aeabi_dmul+0x24a>
    2430:	ea81 0103 	eor.w	r1, r1, r3
    2434:	f001 4100 	and.w	r1, r1, #2147483648	; 0x80000000
    2438:	f041 41fe 	orr.w	r1, r1, #2130706432	; 0x7f000000
    243c:	f441 0170 	orr.w	r1, r1, #15728640	; 0xf00000
    2440:	f04f 0000 	mov.w	r0, #0
    2444:	bd70      	pop	{r4, r5, r6, pc}
    2446:	f041 41fe 	orr.w	r1, r1, #2130706432	; 0x7f000000
    244a:	f441 0178 	orr.w	r1, r1, #16252928	; 0xf80000
    244e:	bd70      	pop	{r4, r5, r6, pc}

00002450 <__aeabi_ddiv>:
    2450:	b570      	push	{r4, r5, r6, lr}
    2452:	f04f 0cff 	mov.w	r12, #255	; 0xff
    2456:	f44c 6ce0 	orr.w	r12, r12, #1792	; 0x700
    245a:	ea1c 5411 	ands.w	r4, r12, r1, lsr #20
    245e:	bf1d      	ittte	ne
    2460:	ea1c 5513 	andsne.w	r5, r12, r3, lsr #20
    2464:	ea94 0f0c 	teqne	r4, r12
    2468:	ea95 0f0c 	teqne	r5, r12
    246c:	f000 f8a7 	bleq	25be <__aeabi_ddiv+0x16e>
    2470:	eba4 0405 	sub.w	r4, r4, r5
    2474:	ea81 0e03 	eor.w	lr, r1, r3
    2478:	ea52 3503 	orrs.w	r5, r2, r3, lsl #12
    247c:	ea4f 3101 	mov.w	r1, r1, lsl #12
    2480:	f000 8088 	beq.w	2594 <__aeabi_ddiv+0x144>
    2484:	ea4f 3303 	mov.w	r3, r3, lsl #12
    2488:	f04f 5580 	mov.w	r5, #268435456	; 0x10000000
    248c:	ea45 1313 	orr.w	r3, r5, r3, lsr #4
    2490:	ea43 6312 	orr.w	r3, r3, r2, lsr #24
    2494:	ea4f 2202 	mov.w	r2, r2, lsl #8
    2498:	ea45 1511 	orr.w	r5, r5, r1, lsr #4
    249c:	ea45 6510 	orr.w	r5, r5, r0, lsr #24
    24a0:	ea4f 2600 	mov.w	r6, r0, lsl #8
    24a4:	f00e 4100 	and.w	r1, lr, #2147483648	; 0x80000000
    24a8:	429d      	cmp	r5, r3
    24aa:	bf08      	it	eq
    24ac:	4296      	cmpeq	r6, r2
    24ae:	f144 04fd 	adc.w	r4, r4, #253	; 0xfd
    24b2:	f504 7440 	add.w	r4, r4, #768	; 0x300
    24b6:	d202      	bcs.n	24be <__aeabi_ddiv+0x6e>
    24b8:	085b      	lsrs	r3, r3, #1
    24ba:	ea4f 0232 	mov.w	r2, r2, rrx
    24be:	1ab6      	subs	r6, r6, r2
    24c0:	eb65 0503 	sbc.w	r5, r5, r3
    24c4:	085b      	lsrs	r3, r3, #1
    24c6:	ea4f 0232 	mov.w	r2, r2, rrx
    24ca:	f44f 1080 	mov.w	r0, #1048576	; 0x100000
    24ce:	f44f 2c00 	mov.w	r12, #524288	; 0x80000
    24d2:	ebb6 0e02 	subs.w	lr, r6, r2
    24d6:	eb75 0e03 	sbcs.w	lr, r5, r3
    24da:	bf22      	ittt	cs
    24dc:	1ab6      	subcs	r6, r6, r2
    24de:	4675      	movcs	r5, lr
    24e0:	ea40 000c 	orrcs.w	r0, r0, r12
    24e4:	085b      	lsrs	r3, r3, #1
    24e6:	ea4f 0232 	mov.w	r2, r2, rrx
    24ea:	ebb6 0e02 	subs.w	lr, r6, r2
    24ee:	eb75 0e03 	sbcs.w	lr, r5, r3
    24f2:	bf22      	ittt	cs
    24f4:	1ab6      	subcs	r6, r6, r2
    24f6:	4675      	movcs	r5, lr
    24f8:	ea40 005c 	orrcs.w	r0, r0, r12, lsr #1
    24fc:	085b      	lsrs	r3, r3, #1
    24fe:	ea4f 0232 	mov.w	r2, r2, rrx
    2502:	ebb6 0e02 	subs.w	lr, r6, r2
    2506:	eb75 0e03 	sbcs.w	lr, r5, r3
    250a:	bf22      	ittt	cs
    250c:	1ab6      	subcs	r6, r6, r2
    250e:	4675      	movcs	r5, lr
    2510:	ea40 009c 	orrcs.w	r0, r0, r12, lsr #2
    2514:	085b      	lsrs	r3, r3, #1
    2516:	ea4f 0232 	mov.w	r2, r2, rrx
    251a:	ebb6 0e02 	subs.w	lr, r6, r2
    251e:	eb75 0e03 	sbcs.w	lr, r5, r3
    2522:	bf22      	ittt	cs
    2524:	1ab6      	subcs	r6, r6, r2
    2526:	4675      	movcs	r5, lr
    2528:	ea40 00dc 	orrcs.w	r0, r0, r12, lsr #3
    252c:	ea55 0e06 	orrs.w	lr, r5, r6
    2530:	d018      	beq.n	2564 <__aeabi_ddiv+0x114>
    2532:	ea4f 1505 	mov.w	r5, r5, lsl #4
    2536:	ea45 7516 	orr.w	r5, r5, r6, lsr #28
    253a:	ea4f 1606 	mov.w	r6, r6, lsl #4
    253e:	ea4f 03c3 	mov.w	r3, r3, lsl #3
    2542:	ea43 7352 	orr.w	r3, r3, r2, lsr #29
    2546:	ea4f 02c2 	mov.w	r2, r2, lsl #3
    254a:	ea5f 1c1c 	movs.w	r12, r12, lsr #4
    254e:	d1c0      	bne.n	24d2 <__aeabi_ddiv+0x82>
    2550:	f411 1f80 	tst.w	r1, #1048576	; 0x100000
    2554:	d10b      	bne.n	256e <__aeabi_ddiv+0x11e>
    2556:	ea41 0100 	orr.w	r1, r1, r0
    255a:	f04f 0000 	mov.w	r0, #0
    255e:	f04f 4c00 	mov.w	r12, #2147483648	; 0x80000000
    2562:	e7b6      	b.n	24d2 <__aeabi_ddiv+0x82>
    2564:	f411 1f80 	tst.w	r1, #1048576	; 0x100000
    2568:	bf04      	itt	eq
    256a:	4301      	orreq	r1, r0
    256c:	2000      	moveq	r0, #0
    256e:	f1b4 0cfd 	subs.w	r12, r4, #253	; 0xfd
    2572:	bf88      	it	hi
    2574:	f5bc 6fe0 	cmphi.w	r12, #1792	; 0x700
    2578:	f63f aeaf 	bhi.w	22da <__aeabi_dmul+0xde>
    257c:	ebb5 0c03 	subs.w	r12, r5, r3
    2580:	bf04      	itt	eq
    2582:	ebb6 0c02 	subseq.w	r12, r6, r2
    2586:	ea5f 0c50 	movseq.w	r12, r0, lsr #1
    258a:	f150 0000 	adcs.w	r0, r0, #0
    258e:	eb41 5104 	adc.w	r1, r1, r4, lsl #20
    2592:	bd70      	pop	{r4, r5, r6, pc}
    2594:	f00e 4e00 	and.w	lr, lr, #2147483648	; 0x80000000
    2598:	ea4e 3111 	orr.w	r1, lr, r1, lsr #12
    259c:	eb14 045c 	adds.w	r4, r4, r12, lsr #1
    25a0:	bfc2      	ittt	gt
    25a2:	ebd4 050c 	rsbsgt	r5, r4, r12
    25a6:	ea41 5104 	orrgt.w	r1, r1, r4, lsl #20
    25aa:	bd70      	popgt	{r4, r5, r6, pc}
    25ac:	f441 1180 	orr.w	r1, r1, #1048576	; 0x100000
    25b0:	f04f 0e00 	mov.w	lr, #0
    25b4:	3c01      	subs	r4, #1
    25b6:	e690      	b.n	22da <__aeabi_dmul+0xde>
    25b8:	ea45 0e06 	orr.w	lr, r5, r6
    25bc:	e68d      	b.n	22da <__aeabi_dmul+0xde>
    25be:	ea0c 5513 	and.w	r5, r12, r3, lsr #20
    25c2:	ea94 0f0c 	teq	r4, r12
    25c6:	bf08      	it	eq
    25c8:	ea95 0f0c 	teqeq	r5, r12
    25cc:	f43f af3b 	beq.w	2446 <__aeabi_dmul+0x24a>
    25d0:	ea94 0f0c 	teq	r4, r12
    25d4:	d10a      	bne.n	25ec <__aeabi_ddiv+0x19c>
    25d6:	ea50 3401 	orrs.w	r4, r0, r1, lsl #12
    25da:	f47f af34 	bne.w	2446 <__aeabi_dmul+0x24a>
    25de:	ea95 0f0c 	teq	r5, r12
    25e2:	f47f af25 	bne.w	2430 <__aeabi_dmul+0x234>
    25e6:	4610      	mov	r0, r2
    25e8:	4619      	mov	r1, r3
    25ea:	e72c      	b.n	2446 <__aeabi_dmul+0x24a>
    25ec:	ea95 0f0c 	teq	r5, r12
    25f0:	d106      	bne.n	2600 <__aeabi_ddiv+0x1b0>
    25f2:	ea52 3503 	orrs.w	r5, r2, r3, lsl #12
    25f6:	f43f aefd 	beq.w	23f4 <__aeabi_dmul+0x1f8>
    25fa:	4610      	mov	r0, r2
    25fc:	4619      	mov	r1, r3
    25fe:	e722      	b.n	2446 <__aeabi_dmul+0x24a>
    2600:	ea50 0641 	orrs.w	r6, r0, r1, lsl #1
    2604:	bf18      	it	ne
    2606:	ea52 0643 	orrsne.w	r6, r2, r3, lsl #1
    260a:	f47f aec5 	bne.w	2398 <__aeabi_dmul+0x19c>
    260e:	ea50 0441 	orrs.w	r4, r0, r1, lsl #1
    2612:	f47f af0d 	bne.w	2430 <__aeabi_dmul+0x234>
    2616:	ea52 0543 	orrs.w	r5, r2, r3, lsl #1
    261a:	f47f aeeb 	bne.w	23f4 <__aeabi_dmul+0x1f8>
    261e:	e712      	b.n	2446 <__aeabi_dmul+0x24a>

00002620 <__aeabi_d2f>:
    2620:	ea4f 0241 	mov.w	r2, r1, lsl #1
    2624:	f1b2 43e0 	subs.w	r3, r2, #1879048192	; 0x70000000
    2628:	bf24      	itt	cs
    262a:	f5b3 1c00 	subscs.w	r12, r3, #2097152	; 0x200000
    262e:	f1dc 5cfe 	rsbscs	r12, r12, #532676608	; 0x1fc00000
    2632:	d90d      	bls.n	2650 <__aeabi_d2f+0x30>
    2634:	f001 4c00 	and.w	r12, r1, #2147483648	; 0x80000000
    2638:	ea4f 02c0 	mov.w	r2, r0, lsl #3
    263c:	ea4c 7050 	orr.w	r0, r12, r0, lsr #29
    2640:	f1b2 4f00 	cmp.w	r2, #2147483648	; 0x80000000
    2644:	eb40 0083 	adc.w	r0, r0, r3, lsl #2
    2648:	bf08      	it	eq
    264a:	f020 0001 	biceq.w	r0, r0, #1
    264e:	4770      	bx	lr
    2650:	f011 4f80 	tst.w	r1, #1073741824	; 0x40000000
    2654:	d121      	bne.n	269a <__aeabi_d2f+0x7a>
    2656:	f113 7238 	adds.w	r2, r3, #48234496	; 0x2e00000
    265a:	bfbc      	itt	lt
    265c:	f001 4000 	andlt.w	r0, r1, #2147483648	; 0x80000000
    2660:	4770      	bxlt	lr
    2662:	f441 1180 	orr.w	r1, r1, #1048576	; 0x100000
    2666:	ea4f 5252 	mov.w	r2, r2, lsr #21
    266a:	f1c2 0218 	rsb	r2, r2, #24
    266e:	f1c2 0c20 	rsb	r12, r2, #32
    2672:	fa10 f30c 	lsls.w	r3, r0, r12
    2676:	fa20 f002 	lsr.w	r0, r0, r2
    267a:	bf18      	it	ne
    267c:	f040 0001 	orrne.w	r0, r0, #1
    2680:	ea4f 23c1 	mov.w	r3, r1, lsl #11
    2684:	ea4f 23d3 	mov.w	r3, r3, lsr #11
    2688:	fa03 fc0c 	lsl.w	r12, r3, r12
    268c:	ea40 000c 	orr.w	r0, r0, r12
    2690:	fa23 f302 	lsr.w	r3, r3, r2
    2694:	ea4f 0343 	mov.w	r3, r3, lsl #1
    2698:	e7cc      	b.n	2634 <__aeabi_d2f+0x14>
    269a:	ea7f 5362 	mvns.w	r3, r2, asr #21
    269e:	d107      	bne.n	26b0 <__aeabi_d2f+0x90>
    26a0:	ea50 3301 	orrs.w	r3, r0, r1, lsl #12
    26a4:	bf1e      	ittt	ne
    26a6:	f04f 40fe 	movne.w	r0, #2130706432	; 0x7f000000
    26aa:	f440 0040 	orrne.w	r0, r0, #12582912	; 0xc00000
    26ae:	4770      	bxne	lr
    26b0:	f001 4000 	and.w	r0, r1, #2147483648	; 0x80000000
    26b4:	f040 40fe 	orr.w	r0, r0, #2130706432	; 0x7f000000
    26b8:	f440 0000 	orr.w	r0, r0, #8388608	; 0x800000
    26bc:	4770      	bx	lr
    26be:	bf00      	nop

000026c0 <__aeabi_fmul>:
    26c0:	f04f 0cff 	mov.w	r12, #255	; 0xff
    26c4:	ea1c 52d0 	ands.w	r2, r12, r0, lsr #23
    26c8:	bf1e      	ittt	ne
    26ca:	ea1c 53d1 	andsne.w	r3, r12, r1, lsr #23
    26ce:	ea92 0f0c 	teqne	r2, r12
    26d2:	ea93 0f0c 	teqne	r3, r12
    26d6:	d06f      	beq.n	27b8 <__aeabi_fmul+0xf8>
    26d8:	441a      	add	r2, r3
    26da:	ea80 0c01 	eor.w	r12, r0, r1
    26de:	0240      	lsls	r0, r0, #9
    26e0:	bf18      	it	ne
    26e2:	ea5f 2141 	movsne.w	r1, r1, lsl #9
    26e6:	d01e      	beq.n	2726 <__aeabi_fmul+0x66>
    26e8:	f04f 6300 	mov.w	r3, #134217728	; 0x8000000
    26ec:	ea43 1050 	orr.w	r0, r3, r0, lsr #5
    26f0:	ea43 1151 	orr.w	r1, r3, r1, lsr #5
    26f4:	fba0 3101 	umull	r3, r1, r0, r1
    26f8:	f00c 4000 	and.w	r0, r12, #2147483648	; 0x80000000
    26fc:	f5b1 0f00 	cmp.w	r1, #8388608	; 0x800000
    2700:	bf3e      	ittt	cc
    2702:	0049      	lslcc	r1, r1, #1
    2704:	ea41 71d3 	orrcc.w	r1, r1, r3, lsr #31
    2708:	005b      	lslcc	r3, r3, #1
    270a:	ea40 0001 	orr.w	r0, r0, r1
    270e:	f162 027f 	sbc.w	r2, r2, #127	; 0x7f
    2712:	2afd      	cmp	r2, #253	; 0xfd
    2714:	d81d      	bhi.n	2752 <__aeabi_fmul+0x92>
    2716:	f1b3 4f00 	cmp.w	r3, #2147483648	; 0x80000000
    271a:	eb40 50c2 	adc.w	r0, r0, r2, lsl #23
    271e:	bf08      	it	eq
    2720:	f020 0001 	biceq.w	r0, r0, #1
    2724:	4770      	bx	lr
    2726:	f090 0f00 	teq	r0, #0
    272a:	f00c 4c00 	and.w	r12, r12, #2147483648	; 0x80000000
    272e:	bf08      	it	eq
    2730:	0249      	lsleq	r1, r1, #9
    2732:	ea4c 2050 	orr.w	r0, r12, r0, lsr #9
    2736:	ea40 2051 	orr.w	r0, r0, r1, lsr #9
    273a:	3a7f      	subs	r2, #127	; 0x7f
    273c:	bfc2      	ittt	gt
    273e:	f1d2 03ff 	rsbsgt	r3, r2, #255	; 0xff
    2742:	ea40 50c2 	orrgt.w	r0, r0, r2, lsl #23
    2746:	4770      	bxgt	lr
    2748:	f440 0000 	orr.w	r0, r0, #8388608	; 0x800000
    274c:	f04f 0300 	mov.w	r3, #0
    2750:	3a01      	subs	r2, #1
    2752:	dc5d      	bgt.n	2810 <__aeabi_fmul+0x150>
    2754:	f112 0f19 	cmn.w	r2, #25
    2758:	bfdc      	itt	le
    275a:	f000 4000 	andle.w	r0, r0, #2147483648	; 0x80000000
    275e:	4770      	bxle	lr
    2760:	f1c2 0200 	rsb	r2, r2, #0
    2764:	0041      	lsls	r1, r0, #1
    2766:	fa21 f102 	lsr.w	r1, r1, r2
    276a:	f1c2 0220 	rsb	r2, r2, #32
    276e:	fa00 fc02 	lsl.w	r12, r0, r2
    2772:	ea5f 0031 	movs.w	r0, r1, rrx
    2776:	f140 0000 	adc.w	r0, r0, #0
    277a:	ea53 034c 	orrs.w	r3, r3, r12, lsl #1
    277e:	bf08      	it	eq
    2780:	ea20 70dc 	biceq.w	r0, r0, r12, lsr #31
    2784:	4770      	bx	lr
    2786:	f092 0f00 	teq	r2, #0
    278a:	f000 4c00 	and.w	r12, r0, #2147483648	; 0x80000000
    278e:	bf02      	ittt	eq
    2790:	0040      	lsleq	r0, r0, #1
    2792:	f410 0f00 	tsteq.w	r0, #8388608	; 0x800000
    2796:	3a01      	subeq	r2, #1
    2798:	d0f9      	beq.n	278e <__aeabi_fmul+0xce>
    279a:	ea40 000c 	orr.w	r0, r0, r12
    279e:	f093 0f00 	teq	r3, #0
    27a2:	f001 4c00 	and.w	r12, r1, #2147483648	; 0x80000000
    27a6:	bf02      	ittt	eq
    27a8:	0049      	lsleq	r1, r1, #1
    27aa:	f411 0f00 	tsteq.w	r1, #8388608	; 0x800000
    27ae:	3b01      	subeq	r3, #1
    27b0:	d0f9      	beq.n	27a6 <__aeabi_fmul+0xe6>
    27b2:	ea41 010c 	orr.w	r1, r1, r12
    27b6:	e78f      	b.n	26d8 <__aeabi_fmul+0x18>
    27b8:	ea0c 53d1 	and.w	r3, r12, r1, lsr #23
    27bc:	ea92 0f0c 	teq	r2, r12
    27c0:	bf18      	it	ne
    27c2:	ea93 0f0c 	teqne	r3, r12
    27c6:	d00a      	beq.n	27de <__aeabi_fmul+0x11e>
    27c8:	f030 4c00 	bics.w	r12, r0, #2147483648	; 0x80000000
    27cc:	bf18      	it	ne
    27ce:	f031 4c00 	bicsne.w	r12, r1, #2147483648	; 0x80000000
    27d2:	d1d8      	bne.n	2786 <__aeabi_fmul+0xc6>
    27d4:	ea80 0001 	eor.w	r0, r0, r1
    27d8:	f000 4000 	and.w	r0, r0, #2147483648	; 0x80000000
    27dc:	4770      	bx	lr
    27de:	f090 0f00 	teq	r0, #0
    27e2:	bf17      	itett	ne
    27e4:	f090 4f00 	teqne	r0, #2147483648	; 0x80000000
    27e8:	4608      	moveq	r0, r1
    27ea:	f091 0f00 	teqne	r1, #0
    27ee:	f091 4f00 	teqne	r1, #2147483648	; 0x80000000
    27f2:	d014      	beq.n	281e <__aeabi_fmul+0x15e>
    27f4:	ea92 0f0c 	teq	r2, r12
    27f8:	d101      	bne.n	27fe <__aeabi_fmul+0x13e>
    27fa:	0242      	lsls	r2, r0, #9
    27fc:	d10f      	bne.n	281e <__aeabi_fmul+0x15e>
    27fe:	ea93 0f0c 	teq	r3, r12
    2802:	d103      	bne.n	280c <__aeabi_fmul+0x14c>
    2804:	024b      	lsls	r3, r1, #9
    2806:	bf18      	it	ne
    2808:	4608      	movne	r0, r1
    280a:	d108      	bne.n	281e <__aeabi_fmul+0x15e>
    280c:	ea80 0001 	eor.w	r0, r0, r1
    2810:	f000 4000 	and.w	r0, r0, #2147483648	; 0x80000000
    2814:	f040 40fe 	orr.w	r0, r0, #2130706432	; 0x7f000000
    2818:	f440 0000 	orr.w	r0, r0, #8388608	; 0x800000
    281c:	4770      	bx	lr
    281e:	f040 40fe 	orr.w	r0, r0, #2130706432	; 0x7f000000
    2822:	f440 0040 	orr.w	r0, r0, #12582912	; 0xc00000
    2826:	4770      	bx	lr

00002828 <__aeabi_fdiv>:
    2828:	f04f 0cff 	mov.w	r12, #255	; 0xff
    282c:	ea1c 52d0 	ands.w	r2, r12, r0, lsr #23
    2830:	bf1e      	ittt	ne
    2832:	ea1c 53d1 	andsne.w	r3, r12, r1, lsr #23
    2836:	ea92 0f0c 	teqne	r2, r12
    283a:	ea93 0f0c 	teqne	r3, r12
    283e:	d069      	beq.n	2914 <__aeabi_fdiv+0xec>
    2840:	eba2 0203 	sub.w	r2, r2, r3
    2844:	ea80 0c01 	eor.w	r12, r0, r1
    2848:	0249      	lsls	r1, r1, #9
    284a:	ea4f 2040 	mov.w	r0, r0, lsl #9
    284e:	d037      	beq.n	28c0 <__aeabi_fdiv+0x98>
    2850:	f04f 5380 	mov.w	r3, #268435456	; 0x10000000
    2854:	ea43 1111 	orr.w	r1, r3, r1, lsr #4
    2858:	ea43 1310 	orr.w	r3, r3, r0, lsr #4
    285c:	f00c 4000 	and.w	r0, r12, #2147483648	; 0x80000000
    2860:	428b      	cmp	r3, r1
    2862:	bf38      	it	cc
    2864:	005b      	lslcc	r3, r3, #1
    2866:	f142 027d 	adc.w	r2, r2, #125	; 0x7d
    286a:	f44f 0c00 	mov.w	r12, #8388608	; 0x800000
    286e:	428b      	cmp	r3, r1
    2870:	bf24      	itt	cs
    2872:	1a5b      	subcs	r3, r3, r1
    2874:	ea40 000c 	orrcs.w	r0, r0, r12
    2878:	ebb3 0f51 	cmp.w	r3, r1, lsr #1
    287c:	bf24      	itt	cs
    287e:	eba3 0351 	subcs.w	r3, r3, r1, lsr #1
    2882:	ea40 005c 	orrcs.w	r0, r0, r12, lsr #1
    2886:	ebb3 0f91 	cmp.w	r3, r1, lsr #2
    288a:	bf24      	itt	cs
    288c:	eba3 0391 	subcs.w	r3, r3, r1, lsr #2
    2890:	ea40 009c 	orrcs.w	r0, r0, r12, lsr #2
    2894:	ebb3 0fd1 	cmp.w	r3, r1, lsr #3
    2898:	bf24      	itt	cs
    289a:	eba3 03d1 	subcs.w	r3, r3, r1, lsr #3
    289e:	ea40 00dc 	orrcs.w	r0, r0, r12, lsr #3
    28a2:	011b      	lsls	r3, r3, #4
    28a4:	bf18      	it	ne
    28a6:	ea5f 1c1c 	movsne.w	r12, r12, lsr #4
    28aa:	d1e0      	bne.n	286e <__aeabi_fdiv+0x46>
    28ac:	2afd      	cmp	r2, #253	; 0xfd
    28ae:	f63f af50 	bhi.w	2752 <__aeabi_fmul+0x92>
    28b2:	428b      	cmp	r3, r1
    28b4:	eb40 50c2 	adc.w	r0, r0, r2, lsl #23
    28b8:	bf08      	it	eq
    28ba:	f020 0001 	biceq.w	r0, r0, #1
    28be:	4770      	bx	lr
    28c0:	f00c 4c00 	and.w	r12, r12, #2147483648	; 0x80000000
    28c4:	ea4c 2050 	orr.w	r0, r12, r0, lsr #9
    28c8:	327f      	adds	r2, #127	; 0x7f
    28ca:	bfc2      	ittt	gt
    28cc:	f1d2 03ff 	rsbsgt	r3, r2, #255	; 0xff
    28d0:	ea40 50c2 	orrgt.w	r0, r0, r2, lsl #23
    28d4:	4770      	bxgt	lr
    28d6:	f440 0000 	orr.w	r0, r0, #8388608	; 0x800000
    28da:	f04f 0300 	mov.w	r3, #0
    28de:	3a01      	subs	r2, #1
    28e0:	e737      	b.n	2752 <__aeabi_fmul+0x92>
    28e2:	f092 0f00 	teq	r2, #0
    28e6:	f000 4c00 	and.w	r12, r0, #2147483648	; 0x80000000
    28ea:	bf02      	ittt	eq
    28ec:	0040      	lsleq	r0, r0, #1
    28ee:	f410 0f00 	tsteq.w	r0, #8388608	; 0x800000
    28f2:	3a01      	subeq	r2, #1
    28f4:	d0f9      	beq.n	28ea <__aeabi_fdiv+0xc2>
    28f6:	ea40 000c 	orr.w	r0, r0, r12
    28fa:	f093 0f00 	teq	r3, #0
    28fe:	f001 4c00 	and.w	r12, r1, #2147483648	; 0x80000000
    2902:	bf02      	ittt	eq
    2904:	0049      	lsleq	r1, r1, #1
    2906:	f411 0f00 	tsteq.w	r1, #8388608	; 0x800000
    290a:	3b01      	subeq	r3, #1
    290c:	d0f9      	beq.n	2902 <__aeabi_fdiv+0xda>
    290e:	ea41 010c 	orr.w	r1, r1, r12
    2912:	e795      	b.n	2840 <__aeabi_fdiv+0x18>
    2914:	ea0c 53d1 	and.w	r3, r12, r1, lsr #23
    2918:	ea92 0f0c 	teq	r2, r12
    291c:	d108      	bne.n	2930 <__aeabi_fdiv+0x108>
    291e:	0242      	lsls	r2, r0, #9
    2920:	f47f af7d 	bne.w	281e <__aeabi_fmul+0x15e>
    2924:	ea93 0f0c 	teq	r3, r12
    2928:	f47f af70 	bne.w	280c <__aeabi_fmul+0x14c>
    292c:	4608      	mov	r0, r1
    292e:	e776      	b.n	281e <__aeabi_fmul+0x15e>
    2930:	ea93 0f0c 	teq	r3, r12
    2934:	d104      	bne.n	2940 <__aeabi_fdiv+0x118>
    2936:	024b      	lsls	r3, r1, #9
    2938:	f43f af4c 	beq.w	27d4 <__aeabi_fmul+0x114>
    293c:	4608      	mov	r0, r1
    293e:	e76e      	b.n	281e <__aeabi_fmul+0x15e>
    2940:	f030 4c00 	bics.w	r12, r0, #2147483648	; 0x80000000
    2944:	bf18      	it	ne
    2946:	f031 4c00 	bicsne.w	r12, r1, #2147483648	; 0x80000000
    294a:	d1ca      	bne.n	28e2 <__aeabi_fdiv+0xba>
    294c:	f030 4200 	bics.w	r2, r0, #2147483648	; 0x80000000
    2950:	f47f af5c 	bne.w	280c <__aeabi_fmul+0x14c>
    2954:	f031 4300 	bics.w	r3, r1, #2147483648	; 0x80000000
    2958:	f47f af3c 	bne.w	27d4 <__aeabi_fmul+0x114>
    295c:	e75f      	b.n	281e <__aeabi_fmul+0x15e>
    295e:	bf00      	nop

00002960 <__aeabi_f2iz>:
    2960:	ea4f 0240 	mov.w	r2, r0, lsl #1
    2964:	f1b2 4ffe 	cmp.w	r2, #2130706432	; 0x7f000000
    2968:	d30f      	bcc.n	298a <__aeabi_f2iz+0x2a>
    296a:	f04f 039e 	mov.w	r3, #158	; 0x9e
    296e:	ebb3 6212 	subs.w	r2, r3, r2, lsr #24
    2972:	d90d      	bls.n	2990 <__aeabi_f2iz+0x30>
    2974:	ea4f 2300 	mov.w	r3, r0, lsl #8
    2978:	f043 4300 	orr.w	r3, r3, #2147483648	; 0x80000000
    297c:	f010 4f00 	tst.w	r0, #2147483648	; 0x80000000
    2980:	fa23 f002 	lsr.w	r0, r3, r2
    2984:	bf18      	it	ne
    2986:	4240      	negne	r0, r0
    2988:	4770      	bx	lr
    298a:	f04f 0000 	mov.w	r0, #0
    298e:	4770      	bx	lr
    2990:	f112 0f61 	cmn.w	r2, #97	; 0x61
    2994:	d101      	bne.n	299a <__aeabi_f2iz+0x3a>
    2996:	0242      	lsls	r2, r0, #9
    2998:	d105      	bne.n	29a6 <__aeabi_f2iz+0x46>
    299a:	f010 4000 	ands.w	r0, r0, #2147483648	; 0x80000000
    299e:	bf08      	it	eq
    29a0:	f06f 4000 	mvneq.w	r0, #2147483648	; 0x80000000
    29a4:	4770      	bx	lr
    29a6:	f04f 0000 	mov.w	r0, #0
    29aa:	4770      	bx	lr

000029ac <__cxa_atexit>:
    29ac:	b510      	push	{r4, lr}
    29ae:	4c05      	ldr	r4, [pc, #20]	; (29c4 <__cxa_atexit+0x18>)
    29b0:	4613      	mov	r3, r2
    29b2:	b12c      	cbz	r4, 29c0 <__cxa_atexit+0x14>
    29b4:	460a      	mov	r2, r1
    29b6:	4601      	mov	r1, r0
    29b8:	2002      	movs	r0, #2
    29ba:	f3af 8000 	nop.w
    29be:	bd10      	pop	{r4, pc}
    29c0:	4620      	mov	r0, r4
    29c2:	bd10      	pop	{r4, pc}
    29c4:	00000000 	.word	0x00000000

000029c8 <__errno>:
    29c8:	4b01      	ldr	r3, [pc, #4]	; (29d0 <__errno+0x8>)
    29ca:	6818      	ldr	r0, [r3, #0]
    29cc:	4770      	bx	lr
    29ce:	bf00      	nop
    29d0:	10000134 	.word	0x10000134

000029d4 <exit>:
    29d4:	b508      	push	{r3, lr}
    29d6:	4b07      	ldr	r3, [pc, #28]	; (29f4 <exit+0x20>)
    29d8:	4604      	mov	r4, r0
    29da:	b113      	cbz	r3, 29e2 <exit+0xe>
    29dc:	2100      	movs	r1, #0
    29de:	f3af 8000 	nop.w
    29e2:	4b05      	ldr	r3, [pc, #20]	; (29f8 <exit+0x24>)
    29e4:	6818      	ldr	r0, [r3, #0]
    29e6:	6a83      	ldr	r3, [r0, #40]	; 0x28
    29e8:	b103      	cbz	r3, 29ec <exit+0x18>
    29ea:	4798      	blx	r3
    29ec:	4620      	mov	r0, r4
    29ee:	f7ff f921 	bl	1c34 <_exit>
    29f2:	bf00      	nop
    29f4:	00000000 	.word	0x00000000
    29f8:	00004ef4 	.word	0x00004ef4

000029fc <_fclose_r>:
    29fc:	b570      	push	{r4, r5, r6, lr}
    29fe:	4605      	mov	r5, r0
    2a00:	460c      	mov	r4, r1
    2a02:	b909      	cbnz	r1, 2a08 <_fclose_r+0xc>
    2a04:	2000      	movs	r0, #0
    2a06:	bd70      	pop	{r4, r5, r6, pc}
    2a08:	b118      	cbz	r0, 2a12 <_fclose_r+0x16>
    2a0a:	6983      	ldr	r3, [r0, #24]
    2a0c:	b90b      	cbnz	r3, 2a12 <_fclose_r+0x16>
    2a0e:	f000 f951 	bl	2cb4 <__sinit>
    2a12:	4b20      	ldr	r3, [pc, #128]	; (2a94 <_fclose_r+0x98>)
    2a14:	429c      	cmp	r4, r3
    2a16:	d101      	bne.n	2a1c <_fclose_r+0x20>
    2a18:	686c      	ldr	r4, [r5, #4]
    2a1a:	e008      	b.n	2a2e <_fclose_r+0x32>
    2a1c:	4b1e      	ldr	r3, [pc, #120]	; (2a98 <_fclose_r+0x9c>)
    2a1e:	429c      	cmp	r4, r3
    2a20:	d101      	bne.n	2a26 <_fclose_r+0x2a>
    2a22:	68ac      	ldr	r4, [r5, #8]
    2a24:	e003      	b.n	2a2e <_fclose_r+0x32>
    2a26:	4b1d      	ldr	r3, [pc, #116]	; (2a9c <_fclose_r+0xa0>)
    2a28:	429c      	cmp	r4, r3
    2a2a:	bf08      	it	eq
    2a2c:	68ec      	ldreq	r4, [r5, #12]
    2a2e:	f9b4 300c 	ldrsh.w	r3, [r4, #12]
    2a32:	2b00      	cmp	r3, #0
    2a34:	d0e6      	beq.n	2a04 <_fclose_r+0x8>
    2a36:	4621      	mov	r1, r4
    2a38:	4628      	mov	r0, r5
    2a3a:	f000 f839 	bl	2ab0 <__sflush_r>
    2a3e:	6b23      	ldr	r3, [r4, #48]	; 0x30
    2a40:	4606      	mov	r6, r0
    2a42:	b133      	cbz	r3, 2a52 <_fclose_r+0x56>
    2a44:	6a21      	ldr	r1, [r4, #32]
    2a46:	4628      	mov	r0, r5
    2a48:	4798      	blx	r3
    2a4a:	2800      	cmp	r0, #0
    2a4c:	bfb8      	it	lt
    2a4e:	f04f 36ff 	movlt.w	r6, #4294967295
    2a52:	89a3      	ldrh	r3, [r4, #12]
    2a54:	061b      	lsls	r3, r3, #24
    2a56:	d503      	bpl.n	2a60 <_fclose_r+0x64>
    2a58:	6921      	ldr	r1, [r4, #16]
    2a5a:	4628      	mov	r0, r5
    2a5c:	f000 fb4a 	bl	30f4 <_free_r>
    2a60:	6b61      	ldr	r1, [r4, #52]	; 0x34
    2a62:	b141      	cbz	r1, 2a76 <_fclose_r+0x7a>
    2a64:	f104 0344 	add.w	r3, r4, #68	; 0x44
    2a68:	4299      	cmp	r1, r3
    2a6a:	d002      	beq.n	2a72 <_fclose_r+0x76>
    2a6c:	4628      	mov	r0, r5
    2a6e:	f000 fb41 	bl	30f4 <_free_r>
    2a72:	2300      	movs	r3, #0
    2a74:	6363      	str	r3, [r4, #52]	; 0x34
    2a76:	6ca1      	ldr	r1, [r4, #72]	; 0x48
    2a78:	b121      	cbz	r1, 2a84 <_fclose_r+0x88>
    2a7a:	4628      	mov	r0, r5
    2a7c:	f000 fb3a 	bl	30f4 <_free_r>
    2a80:	2300      	movs	r3, #0
    2a82:	64a3      	str	r3, [r4, #72]	; 0x48
    2a84:	f000 f982 	bl	2d8c <__sfp_lock_acquire>
    2a88:	2300      	movs	r3, #0
    2a8a:	81a3      	strh	r3, [r4, #12]
    2a8c:	f000 f97f 	bl	2d8e <__sfp_lock_release>
    2a90:	4630      	mov	r0, r6
    2a92:	bd70      	pop	{r4, r5, r6, pc}
    2a94:	00004e90 	.word	0x00004e90
    2a98:	00004eb0 	.word	0x00004eb0
    2a9c:	00004ed0 	.word	0x00004ed0

00002aa0 <fclose>:
    2aa0:	4b02      	ldr	r3, [pc, #8]	; (2aac <fclose+0xc>)
    2aa2:	4601      	mov	r1, r0
    2aa4:	6818      	ldr	r0, [r3, #0]
    2aa6:	f7ff bfa9 	b.w	29fc <_fclose_r>
    2aaa:	bf00      	nop
    2aac:	10000134 	.word	0x10000134

00002ab0 <__sflush_r>:
    2ab0:	898a      	ldrh	r2, [r1, #12]
    2ab2:	e92d 41f0 	stmdb	sp!, {r4, r5, r6, r7, r8, lr}
    2ab6:	4605      	mov	r5, r0
    2ab8:	0710      	lsls	r0, r2, #28
    2aba:	460c      	mov	r4, r1
    2abc:	d459      	bmi.n	2b72 <__sflush_r+0xc2>
    2abe:	684b      	ldr	r3, [r1, #4]
    2ac0:	2b00      	cmp	r3, #0
    2ac2:	dc02      	bgt.n	2aca <__sflush_r+0x1a>
    2ac4:	6c0b      	ldr	r3, [r1, #64]	; 0x40
    2ac6:	2b00      	cmp	r3, #0
    2ac8:	dd17      	ble.n	2afa <__sflush_r+0x4a>
    2aca:	6ae6      	ldr	r6, [r4, #44]	; 0x2c
    2acc:	b1ae      	cbz	r6, 2afa <__sflush_r+0x4a>
    2ace:	f402 5280 	and.w	r2, r2, #4096	; 0x1000
    2ad2:	2300      	movs	r3, #0
    2ad4:	b292      	uxth	r2, r2
    2ad6:	682f      	ldr	r7, [r5, #0]
    2ad8:	602b      	str	r3, [r5, #0]
    2ada:	b10a      	cbz	r2, 2ae0 <__sflush_r+0x30>
    2adc:	6d60      	ldr	r0, [r4, #84]	; 0x54
    2ade:	e015      	b.n	2b0c <__sflush_r+0x5c>
    2ae0:	6a21      	ldr	r1, [r4, #32]
    2ae2:	2301      	movs	r3, #1
    2ae4:	4628      	mov	r0, r5
    2ae6:	47b0      	blx	r6
    2ae8:	1c41      	adds	r1, r0, #1
    2aea:	d10f      	bne.n	2b0c <__sflush_r+0x5c>
    2aec:	682b      	ldr	r3, [r5, #0]
    2aee:	b16b      	cbz	r3, 2b0c <__sflush_r+0x5c>
    2af0:	2b1d      	cmp	r3, #29
    2af2:	d001      	beq.n	2af8 <__sflush_r+0x48>
    2af4:	2b16      	cmp	r3, #22
    2af6:	d103      	bne.n	2b00 <__sflush_r+0x50>
    2af8:	602f      	str	r7, [r5, #0]
    2afa:	2000      	movs	r0, #0
    2afc:	e8bd 81f0 	ldmia.w	sp!, {r4, r5, r6, r7, r8, pc}
    2b00:	89a3      	ldrh	r3, [r4, #12]
    2b02:	f043 0340 	orr.w	r3, r3, #64	; 0x40
    2b06:	81a3      	strh	r3, [r4, #12]
    2b08:	e8bd 81f0 	ldmia.w	sp!, {r4, r5, r6, r7, r8, pc}
    2b0c:	89a3      	ldrh	r3, [r4, #12]
    2b0e:	075a      	lsls	r2, r3, #29
    2b10:	d505      	bpl.n	2b1e <__sflush_r+0x6e>
    2b12:	6863      	ldr	r3, [r4, #4]
    2b14:	1ac0      	subs	r0, r0, r3
    2b16:	6b63      	ldr	r3, [r4, #52]	; 0x34
    2b18:	b10b      	cbz	r3, 2b1e <__sflush_r+0x6e>
    2b1a:	6c23      	ldr	r3, [r4, #64]	; 0x40
    2b1c:	1ac0      	subs	r0, r0, r3
    2b1e:	2300      	movs	r3, #0
    2b20:	4602      	mov	r2, r0
    2b22:	6ae6      	ldr	r6, [r4, #44]	; 0x2c
    2b24:	6a21      	ldr	r1, [r4, #32]
    2b26:	4628      	mov	r0, r5
    2b28:	47b0      	blx	r6
    2b2a:	1c43      	adds	r3, r0, #1
    2b2c:	89a3      	ldrh	r3, [r4, #12]
    2b2e:	d106      	bne.n	2b3e <__sflush_r+0x8e>
    2b30:	6829      	ldr	r1, [r5, #0]
    2b32:	291d      	cmp	r1, #29
    2b34:	d839      	bhi.n	2baa <__sflush_r+0xfa>
    2b36:	4a20      	ldr	r2, [pc, #128]	; (2bb8 <__sflush_r+0x108>)
    2b38:	40ca      	lsrs	r2, r1
    2b3a:	07d6      	lsls	r6, r2, #31
    2b3c:	d535      	bpl.n	2baa <__sflush_r+0xfa>
    2b3e:	2200      	movs	r2, #0
    2b40:	6062      	str	r2, [r4, #4]
    2b42:	6922      	ldr	r2, [r4, #16]
    2b44:	04d9      	lsls	r1, r3, #19
    2b46:	6022      	str	r2, [r4, #0]
    2b48:	d504      	bpl.n	2b54 <__sflush_r+0xa4>
    2b4a:	1c42      	adds	r2, r0, #1
    2b4c:	d101      	bne.n	2b52 <__sflush_r+0xa2>
    2b4e:	682b      	ldr	r3, [r5, #0]
    2b50:	b903      	cbnz	r3, 2b54 <__sflush_r+0xa4>
    2b52:	6560      	str	r0, [r4, #84]	; 0x54
    2b54:	6b61      	ldr	r1, [r4, #52]	; 0x34
    2b56:	602f      	str	r7, [r5, #0]
    2b58:	2900      	cmp	r1, #0
    2b5a:	d0ce      	beq.n	2afa <__sflush_r+0x4a>
    2b5c:	f104 0344 	add.w	r3, r4, #68	; 0x44
    2b60:	4299      	cmp	r1, r3
    2b62:	d002      	beq.n	2b6a <__sflush_r+0xba>
    2b64:	4628      	mov	r0, r5
    2b66:	f000 fac5 	bl	30f4 <_free_r>
    2b6a:	2000      	movs	r0, #0
    2b6c:	6360      	str	r0, [r4, #52]	; 0x34
    2b6e:	e8bd 81f0 	ldmia.w	sp!, {r4, r5, r6, r7, r8, pc}
    2b72:	690f      	ldr	r7, [r1, #16]
    2b74:	2f00      	cmp	r7, #0
    2b76:	d0c0      	beq.n	2afa <__sflush_r+0x4a>
    2b78:	0793      	lsls	r3, r2, #30
    2b7a:	680e      	ldr	r6, [r1, #0]
    2b7c:	bf0c      	ite	eq
    2b7e:	694b      	ldreq	r3, [r1, #20]
    2b80:	2300      	movne	r3, #0
    2b82:	ebc7 0806 	rsb	r8, r7, r6
    2b86:	600f      	str	r7, [r1, #0]
    2b88:	608b      	str	r3, [r1, #8]
    2b8a:	e002      	b.n	2b92 <__sflush_r+0xe2>
    2b8c:	4407      	add	r7, r0
    2b8e:	ebc0 0808 	rsb	r8, r0, r8
    2b92:	f1b8 0f00 	cmp.w	r8, #0
    2b96:	ddb0      	ble.n	2afa <__sflush_r+0x4a>
    2b98:	4643      	mov	r3, r8
    2b9a:	463a      	mov	r2, r7
    2b9c:	6a21      	ldr	r1, [r4, #32]
    2b9e:	4628      	mov	r0, r5
    2ba0:	6aa6      	ldr	r6, [r4, #40]	; 0x28
    2ba2:	47b0      	blx	r6
    2ba4:	2800      	cmp	r0, #0
    2ba6:	dcf1      	bgt.n	2b8c <__sflush_r+0xdc>
    2ba8:	89a3      	ldrh	r3, [r4, #12]
    2baa:	f043 0340 	orr.w	r3, r3, #64	; 0x40
    2bae:	81a3      	strh	r3, [r4, #12]
    2bb0:	f04f 30ff 	mov.w	r0, #4294967295
    2bb4:	e8bd 81f0 	ldmia.w	sp!, {r4, r5, r6, r7, r8, pc}
    2bb8:	20400001 	.word	0x20400001

00002bbc <_fflush_r>:
    2bbc:	b538      	push	{r3, r4, r5, lr}
    2bbe:	690b      	ldr	r3, [r1, #16]
    2bc0:	4605      	mov	r5, r0
    2bc2:	460c      	mov	r4, r1
    2bc4:	b1db      	cbz	r3, 2bfe <_fflush_r+0x42>
    2bc6:	b118      	cbz	r0, 2bd0 <_fflush_r+0x14>
    2bc8:	6983      	ldr	r3, [r0, #24]
    2bca:	b90b      	cbnz	r3, 2bd0 <_fflush_r+0x14>
    2bcc:	f000 f872 	bl	2cb4 <__sinit>
    2bd0:	4b0c      	ldr	r3, [pc, #48]	; (2c04 <_fflush_r+0x48>)
    2bd2:	429c      	cmp	r4, r3
    2bd4:	d101      	bne.n	2bda <_fflush_r+0x1e>
    2bd6:	686c      	ldr	r4, [r5, #4]
    2bd8:	e008      	b.n	2bec <_fflush_r+0x30>
    2bda:	4b0b      	ldr	r3, [pc, #44]	; (2c08 <_fflush_r+0x4c>)
    2bdc:	429c      	cmp	r4, r3
    2bde:	d101      	bne.n	2be4 <_fflush_r+0x28>
    2be0:	68ac      	ldr	r4, [r5, #8]
    2be2:	e003      	b.n	2bec <_fflush_r+0x30>
    2be4:	4b09      	ldr	r3, [pc, #36]	; (2c0c <_fflush_r+0x50>)
    2be6:	429c      	cmp	r4, r3
    2be8:	bf08      	it	eq
    2bea:	68ec      	ldreq	r4, [r5, #12]
    2bec:	f9b4 300c 	ldrsh.w	r3, [r4, #12]
    2bf0:	b12b      	cbz	r3, 2bfe <_fflush_r+0x42>
    2bf2:	4621      	mov	r1, r4
    2bf4:	4628      	mov	r0, r5
    2bf6:	e8bd 4038 	ldmia.w	sp!, {r3, r4, r5, lr}
    2bfa:	f7ff bf59 	b.w	2ab0 <__sflush_r>
    2bfe:	2000      	movs	r0, #0
    2c00:	bd38      	pop	{r3, r4, r5, pc}
    2c02:	bf00      	nop
    2c04:	00004e90 	.word	0x00004e90
    2c08:	00004eb0 	.word	0x00004eb0
    2c0c:	00004ed0 	.word	0x00004ed0

00002c10 <fflush>:
    2c10:	4601      	mov	r1, r0
    2c12:	b920      	cbnz	r0, 2c1e <fflush+0xe>
    2c14:	4b04      	ldr	r3, [pc, #16]	; (2c28 <fflush+0x18>)
    2c16:	4905      	ldr	r1, [pc, #20]	; (2c2c <fflush+0x1c>)
    2c18:	6818      	ldr	r0, [r3, #0]
    2c1a:	f000 b98f 	b.w	2f3c <_fwalk_reent>
    2c1e:	4b04      	ldr	r3, [pc, #16]	; (2c30 <fflush+0x20>)
    2c20:	6818      	ldr	r0, [r3, #0]
    2c22:	f7ff bfcb 	b.w	2bbc <_fflush_r>
    2c26:	bf00      	nop
    2c28:	00004ef4 	.word	0x00004ef4
    2c2c:	00002bbd 	.word	0x00002bbd
    2c30:	10000134 	.word	0x10000134

00002c34 <_cleanup_r>:
    2c34:	4901      	ldr	r1, [pc, #4]	; (2c3c <_cleanup_r+0x8>)
    2c36:	f000 b981 	b.w	2f3c <_fwalk_reent>
    2c3a:	bf00      	nop
    2c3c:	00002bbd 	.word	0x00002bbd

00002c40 <std.isra.0>:
    2c40:	b510      	push	{r4, lr}
    2c42:	4604      	mov	r4, r0
    2c44:	2300      	movs	r3, #0
    2c46:	6003      	str	r3, [r0, #0]
    2c48:	6043      	str	r3, [r0, #4]
    2c4a:	6083      	str	r3, [r0, #8]
    2c4c:	8181      	strh	r1, [r0, #12]
    2c4e:	6643      	str	r3, [r0, #100]	; 0x64
    2c50:	81c2      	strh	r2, [r0, #14]
    2c52:	6103      	str	r3, [r0, #16]
    2c54:	6143      	str	r3, [r0, #20]
    2c56:	6183      	str	r3, [r0, #24]
    2c58:	4619      	mov	r1, r3
    2c5a:	2208      	movs	r2, #8
    2c5c:	305c      	adds	r0, #92	; 0x5c
    2c5e:	f000 fa41 	bl	30e4 <memset>
    2c62:	4b05      	ldr	r3, [pc, #20]	; (2c78 <std.isra.0+0x38>)
    2c64:	6224      	str	r4, [r4, #32]
    2c66:	6263      	str	r3, [r4, #36]	; 0x24
    2c68:	4b04      	ldr	r3, [pc, #16]	; (2c7c <std.isra.0+0x3c>)
    2c6a:	62a3      	str	r3, [r4, #40]	; 0x28
    2c6c:	4b04      	ldr	r3, [pc, #16]	; (2c80 <std.isra.0+0x40>)
    2c6e:	62e3      	str	r3, [r4, #44]	; 0x2c
    2c70:	4b04      	ldr	r3, [pc, #16]	; (2c84 <std.isra.0+0x44>)
    2c72:	6323      	str	r3, [r4, #48]	; 0x30
    2c74:	bd10      	pop	{r4, pc}
    2c76:	bf00      	nop
    2c78:	00003d09 	.word	0x00003d09
    2c7c:	00003d2f 	.word	0x00003d2f
    2c80:	00003d67 	.word	0x00003d67
    2c84:	00003d8b 	.word	0x00003d8b

00002c88 <__sfmoreglue>:
    2c88:	b570      	push	{r4, r5, r6, lr}
    2c8a:	2368      	movs	r3, #104	; 0x68
    2c8c:	1e4d      	subs	r5, r1, #1
    2c8e:	435d      	muls	r5, r3
    2c90:	460e      	mov	r6, r1
    2c92:	f105 0174 	add.w	r1, r5, #116	; 0x74
    2c96:	f000 fa71 	bl	317c <_malloc_r>
    2c9a:	4604      	mov	r4, r0
    2c9c:	b140      	cbz	r0, 2cb0 <__sfmoreglue+0x28>
    2c9e:	2100      	movs	r1, #0
    2ca0:	e880 0042 	stmia.w	r0, {r1, r6}
    2ca4:	300c      	adds	r0, #12
    2ca6:	60a0      	str	r0, [r4, #8]
    2ca8:	f105 0268 	add.w	r2, r5, #104	; 0x68
    2cac:	f000 fa1a 	bl	30e4 <memset>
    2cb0:	4620      	mov	r0, r4
    2cb2:	bd70      	pop	{r4, r5, r6, pc}

00002cb4 <__sinit>:
    2cb4:	6983      	ldr	r3, [r0, #24]
    2cb6:	b510      	push	{r4, lr}
    2cb8:	4604      	mov	r4, r0
    2cba:	bb33      	cbnz	r3, 2d0a <__sinit+0x56>
    2cbc:	6483      	str	r3, [r0, #72]	; 0x48
    2cbe:	64c3      	str	r3, [r0, #76]	; 0x4c
    2cc0:	6503      	str	r3, [r0, #80]	; 0x50
    2cc2:	4b12      	ldr	r3, [pc, #72]	; (2d0c <__sinit+0x58>)
    2cc4:	4a12      	ldr	r2, [pc, #72]	; (2d10 <__sinit+0x5c>)
    2cc6:	681b      	ldr	r3, [r3, #0]
    2cc8:	6282      	str	r2, [r0, #40]	; 0x28
    2cca:	4298      	cmp	r0, r3
    2ccc:	bf04      	itt	eq
    2cce:	2301      	moveq	r3, #1
    2cd0:	6183      	streq	r3, [r0, #24]
    2cd2:	f000 f81f 	bl	2d14 <__sfp>
    2cd6:	6060      	str	r0, [r4, #4]
    2cd8:	4620      	mov	r0, r4
    2cda:	f000 f81b 	bl	2d14 <__sfp>
    2cde:	60a0      	str	r0, [r4, #8]
    2ce0:	4620      	mov	r0, r4
    2ce2:	f000 f817 	bl	2d14 <__sfp>
    2ce6:	2200      	movs	r2, #0
    2ce8:	60e0      	str	r0, [r4, #12]
    2cea:	2104      	movs	r1, #4
    2cec:	6860      	ldr	r0, [r4, #4]
    2cee:	f7ff ffa7 	bl	2c40 <std.isra.0>
    2cf2:	2201      	movs	r2, #1
    2cf4:	2109      	movs	r1, #9
    2cf6:	68a0      	ldr	r0, [r4, #8]
    2cf8:	f7ff ffa2 	bl	2c40 <std.isra.0>
    2cfc:	2202      	movs	r2, #2
    2cfe:	2112      	movs	r1, #18
    2d00:	68e0      	ldr	r0, [r4, #12]
    2d02:	f7ff ff9d 	bl	2c40 <std.isra.0>
    2d06:	2301      	movs	r3, #1
    2d08:	61a3      	str	r3, [r4, #24]
    2d0a:	bd10      	pop	{r4, pc}
    2d0c:	00004ef4 	.word	0x00004ef4
    2d10:	00002c35 	.word	0x00002c35

00002d14 <__sfp>:
    2d14:	b5f8      	push	{r3, r4, r5, r6, r7, lr}
    2d16:	4b1c      	ldr	r3, [pc, #112]	; (2d88 <__sfp+0x74>)
    2d18:	4607      	mov	r7, r0
    2d1a:	681e      	ldr	r6, [r3, #0]
    2d1c:	69b3      	ldr	r3, [r6, #24]
    2d1e:	b913      	cbnz	r3, 2d26 <__sfp+0x12>
    2d20:	4630      	mov	r0, r6
    2d22:	f7ff ffc7 	bl	2cb4 <__sinit>
    2d26:	3648      	adds	r6, #72	; 0x48
    2d28:	68b4      	ldr	r4, [r6, #8]
    2d2a:	6873      	ldr	r3, [r6, #4]
    2d2c:	3b01      	subs	r3, #1
    2d2e:	d404      	bmi.n	2d3a <__sfp+0x26>
    2d30:	f9b4 500c 	ldrsh.w	r5, [r4, #12]
    2d34:	b17d      	cbz	r5, 2d56 <__sfp+0x42>
    2d36:	3468      	adds	r4, #104	; 0x68
    2d38:	e7f8      	b.n	2d2c <__sfp+0x18>
    2d3a:	6833      	ldr	r3, [r6, #0]
    2d3c:	b10b      	cbz	r3, 2d42 <__sfp+0x2e>
    2d3e:	6836      	ldr	r6, [r6, #0]
    2d40:	e7f2      	b.n	2d28 <__sfp+0x14>
    2d42:	2104      	movs	r1, #4
    2d44:	4638      	mov	r0, r7
    2d46:	f7ff ff9f 	bl	2c88 <__sfmoreglue>
    2d4a:	6030      	str	r0, [r6, #0]
    2d4c:	2800      	cmp	r0, #0
    2d4e:	d1f6      	bne.n	2d3e <__sfp+0x2a>
    2d50:	230c      	movs	r3, #12
    2d52:	603b      	str	r3, [r7, #0]
    2d54:	bdf8      	pop	{r3, r4, r5, r6, r7, pc}
    2d56:	f64f 73ff 	movw	r3, #65535	; 0xffff
    2d5a:	81e3      	strh	r3, [r4, #14]
    2d5c:	2301      	movs	r3, #1
    2d5e:	81a3      	strh	r3, [r4, #12]
    2d60:	6665      	str	r5, [r4, #100]	; 0x64
    2d62:	6025      	str	r5, [r4, #0]
    2d64:	60a5      	str	r5, [r4, #8]
    2d66:	6065      	str	r5, [r4, #4]
    2d68:	6125      	str	r5, [r4, #16]
    2d6a:	6165      	str	r5, [r4, #20]
    2d6c:	61a5      	str	r5, [r4, #24]
    2d6e:	2208      	movs	r2, #8
    2d70:	4629      	mov	r1, r5
    2d72:	f104 005c 	add.w	r0, r4, #92	; 0x5c
    2d76:	f000 f9b5 	bl	30e4 <memset>
    2d7a:	6365      	str	r5, [r4, #52]	; 0x34
    2d7c:	63a5      	str	r5, [r4, #56]	; 0x38
    2d7e:	64a5      	str	r5, [r4, #72]	; 0x48
    2d80:	64e5      	str	r5, [r4, #76]	; 0x4c
    2d82:	4620      	mov	r0, r4
    2d84:	bdf8      	pop	{r3, r4, r5, r6, r7, pc}
    2d86:	bf00      	nop
    2d88:	00004ef4 	.word	0x00004ef4

00002d8c <__sfp_lock_acquire>:
    2d8c:	4770      	bx	lr

00002d8e <__sfp_lock_release>:
    2d8e:	4770      	bx	lr

00002d90 <_fopen_r>:
    2d90:	b5f7      	push	{r0, r1, r2, r4, r5, r6, r7, lr}
    2d92:	460f      	mov	r7, r1
    2d94:	4611      	mov	r1, r2
    2d96:	aa01      	add	r2, sp, #4
    2d98:	4605      	mov	r5, r0
    2d9a:	f001 fa41 	bl	4220 <__sflags>
    2d9e:	4606      	mov	r6, r0
    2da0:	b908      	cbnz	r0, 2da6 <_fopen_r+0x16>
    2da2:	2000      	movs	r0, #0
    2da4:	e029      	b.n	2dfa <_fopen_r+0x6a>
    2da6:	4628      	mov	r0, r5
    2da8:	f7ff ffb4 	bl	2d14 <__sfp>
    2dac:	4604      	mov	r4, r0
    2dae:	2800      	cmp	r0, #0
    2db0:	d0f7      	beq.n	2da2 <_fopen_r+0x12>
    2db2:	f44f 73db 	mov.w	r3, #438	; 0x1b6
    2db6:	9a01      	ldr	r2, [sp, #4]
    2db8:	4639      	mov	r1, r7
    2dba:	4628      	mov	r0, r5
    2dbc:	f000 fe74 	bl	3aa8 <_open_r>
    2dc0:	2800      	cmp	r0, #0
    2dc2:	da06      	bge.n	2dd2 <_fopen_r+0x42>
    2dc4:	2500      	movs	r5, #0
    2dc6:	f7ff ffe1 	bl	2d8c <__sfp_lock_acquire>
    2dca:	81a5      	strh	r5, [r4, #12]
    2dcc:	f7ff ffdf 	bl	2d8e <__sfp_lock_release>
    2dd0:	e7e7      	b.n	2da2 <_fopen_r+0x12>
    2dd2:	4b0b      	ldr	r3, [pc, #44]	; (2e00 <_fopen_r+0x70>)
    2dd4:	81e0      	strh	r0, [r4, #14]
    2dd6:	6263      	str	r3, [r4, #36]	; 0x24
    2dd8:	4b0a      	ldr	r3, [pc, #40]	; (2e04 <_fopen_r+0x74>)
    2dda:	81a6      	strh	r6, [r4, #12]
    2ddc:	62a3      	str	r3, [r4, #40]	; 0x28
    2dde:	4b0a      	ldr	r3, [pc, #40]	; (2e08 <_fopen_r+0x78>)
    2de0:	6224      	str	r4, [r4, #32]
    2de2:	62e3      	str	r3, [r4, #44]	; 0x2c
    2de4:	4b09      	ldr	r3, [pc, #36]	; (2e0c <_fopen_r+0x7c>)
    2de6:	6323      	str	r3, [r4, #48]	; 0x30
    2de8:	05f3      	lsls	r3, r6, #23
    2dea:	d505      	bpl.n	2df8 <_fopen_r+0x68>
    2dec:	2302      	movs	r3, #2
    2dee:	2200      	movs	r2, #0
    2df0:	4621      	mov	r1, r4
    2df2:	4628      	mov	r0, r5
    2df4:	f000 f814 	bl	2e20 <_fseek_r>
    2df8:	4620      	mov	r0, r4
    2dfa:	b003      	add	sp, #12
    2dfc:	bdf0      	pop	{r4, r5, r6, r7, pc}
    2dfe:	bf00      	nop
    2e00:	00003d09 	.word	0x00003d09
    2e04:	00003d2f 	.word	0x00003d2f
    2e08:	00003d67 	.word	0x00003d67
    2e0c:	00003d8b 	.word	0x00003d8b

00002e10 <fopen>:
    2e10:	4b02      	ldr	r3, [pc, #8]	; (2e1c <fopen+0xc>)
    2e12:	460a      	mov	r2, r1
    2e14:	4601      	mov	r1, r0
    2e16:	6818      	ldr	r0, [r3, #0]
    2e18:	f7ff bfba 	b.w	2d90 <_fopen_r>
    2e1c:	10000134 	.word	0x10000134

00002e20 <_fseek_r>:
    2e20:	f000 b800 	b.w	2e24 <_fseeko_r>

00002e24 <_fseeko_r>:
    2e24:	e92d 43f8 	stmdb	sp!, {r3, r4, r5, r6, r7, r8, r9, lr}
    2e28:	460c      	mov	r4, r1
    2e2a:	4690      	mov	r8, r2
    2e2c:	461e      	mov	r6, r3
    2e2e:	4605      	mov	r5, r0
    2e30:	b118      	cbz	r0, 2e3a <_fseeko_r+0x16>
    2e32:	6983      	ldr	r3, [r0, #24]
    2e34:	b90b      	cbnz	r3, 2e3a <_fseeko_r+0x16>
    2e36:	f7ff ff3d 	bl	2cb4 <__sinit>
    2e3a:	4b3d      	ldr	r3, [pc, #244]	; (2f30 <_fseeko_r+0x10c>)
    2e3c:	429c      	cmp	r4, r3
    2e3e:	d101      	bne.n	2e44 <_fseeko_r+0x20>
    2e40:	686c      	ldr	r4, [r5, #4]
    2e42:	e008      	b.n	2e56 <_fseeko_r+0x32>
    2e44:	4b3b      	ldr	r3, [pc, #236]	; (2f34 <_fseeko_r+0x110>)
    2e46:	429c      	cmp	r4, r3
    2e48:	d101      	bne.n	2e4e <_fseeko_r+0x2a>
    2e4a:	68ac      	ldr	r4, [r5, #8]
    2e4c:	e003      	b.n	2e56 <_fseeko_r+0x32>
    2e4e:	4b3a      	ldr	r3, [pc, #232]	; (2f38 <_fseeko_r+0x114>)
    2e50:	429c      	cmp	r4, r3
    2e52:	bf08      	it	eq
    2e54:	68ec      	ldreq	r4, [r5, #12]
    2e56:	89a3      	ldrh	r3, [r4, #12]
    2e58:	f403 7384 	and.w	r3, r3, #264	; 0x108
    2e5c:	f5b3 7f84 	cmp.w	r3, #264	; 0x108
    2e60:	d103      	bne.n	2e6a <_fseeko_r+0x46>
    2e62:	4621      	mov	r1, r4
    2e64:	4628      	mov	r0, r5
    2e66:	f7ff fea9 	bl	2bbc <_fflush_r>
    2e6a:	6ae7      	ldr	r7, [r4, #44]	; 0x2c
    2e6c:	b90f      	cbnz	r7, 2e72 <_fseeko_r+0x4e>
    2e6e:	231d      	movs	r3, #29
    2e70:	e02b      	b.n	2eca <_fseeko_r+0xa6>
    2e72:	2e01      	cmp	r6, #1
    2e74:	d004      	beq.n	2e80 <_fseeko_r+0x5c>
    2e76:	2e02      	cmp	r6, #2
    2e78:	d02b      	beq.n	2ed2 <_fseeko_r+0xae>
    2e7a:	b356      	cbz	r6, 2ed2 <_fseeko_r+0xae>
    2e7c:	2316      	movs	r3, #22
    2e7e:	e024      	b.n	2eca <_fseeko_r+0xa6>
    2e80:	4621      	mov	r1, r4
    2e82:	4628      	mov	r0, r5
    2e84:	f7ff fe9a 	bl	2bbc <_fflush_r>
    2e88:	89a2      	ldrh	r2, [r4, #12]
    2e8a:	f402 5280 	and.w	r2, r2, #4096	; 0x1000
    2e8e:	b292      	uxth	r2, r2
    2e90:	b10a      	cbz	r2, 2e96 <_fseeko_r+0x72>
    2e92:	6d60      	ldr	r0, [r4, #84]	; 0x54
    2e94:	e005      	b.n	2ea2 <_fseeko_r+0x7e>
    2e96:	6a21      	ldr	r1, [r4, #32]
    2e98:	4633      	mov	r3, r6
    2e9a:	4628      	mov	r0, r5
    2e9c:	47b8      	blx	r7
    2e9e:	1c41      	adds	r1, r0, #1
    2ea0:	d014      	beq.n	2ecc <_fseeko_r+0xa8>
    2ea2:	89a3      	ldrh	r3, [r4, #12]
    2ea4:	075a      	lsls	r2, r3, #29
    2ea6:	d506      	bpl.n	2eb6 <_fseeko_r+0x92>
    2ea8:	6863      	ldr	r3, [r4, #4]
    2eaa:	1ac0      	subs	r0, r0, r3
    2eac:	6b63      	ldr	r3, [r4, #52]	; 0x34
    2eae:	b14b      	cbz	r3, 2ec4 <_fseeko_r+0xa0>
    2eb0:	6c23      	ldr	r3, [r4, #64]	; 0x40
    2eb2:	1ac0      	subs	r0, r0, r3
    2eb4:	e006      	b.n	2ec4 <_fseeko_r+0xa0>
    2eb6:	071b      	lsls	r3, r3, #28
    2eb8:	d504      	bpl.n	2ec4 <_fseeko_r+0xa0>
    2eba:	6823      	ldr	r3, [r4, #0]
    2ebc:	b113      	cbz	r3, 2ec4 <_fseeko_r+0xa0>
    2ebe:	6922      	ldr	r2, [r4, #16]
    2ec0:	1a9b      	subs	r3, r3, r2
    2ec2:	4418      	add	r0, r3
    2ec4:	4480      	add	r8, r0
    2ec6:	2600      	movs	r6, #0
    2ec8:	e003      	b.n	2ed2 <_fseeko_r+0xae>
    2eca:	602b      	str	r3, [r5, #0]
    2ecc:	f04f 39ff 	mov.w	r9, #4294967295
    2ed0:	e02b      	b.n	2f2a <_fseeko_r+0x106>
    2ed2:	6923      	ldr	r3, [r4, #16]
    2ed4:	b91b      	cbnz	r3, 2ede <_fseeko_r+0xba>
    2ed6:	4621      	mov	r1, r4
    2ed8:	4628      	mov	r0, r5
    2eda:	f000 f873 	bl	2fc4 <__smakebuf_r>
    2ede:	4621      	mov	r1, r4
    2ee0:	4628      	mov	r0, r5
    2ee2:	f7ff fe6b 	bl	2bbc <_fflush_r>
    2ee6:	4681      	mov	r9, r0
    2ee8:	2800      	cmp	r0, #0
    2eea:	d1ef      	bne.n	2ecc <_fseeko_r+0xa8>
    2eec:	4633      	mov	r3, r6
    2eee:	4642      	mov	r2, r8
    2ef0:	6a21      	ldr	r1, [r4, #32]
    2ef2:	4628      	mov	r0, r5
    2ef4:	47b8      	blx	r7
    2ef6:	3001      	adds	r0, #1
    2ef8:	d0e8      	beq.n	2ecc <_fseeko_r+0xa8>
    2efa:	6b61      	ldr	r1, [r4, #52]	; 0x34
    2efc:	b141      	cbz	r1, 2f10 <_fseeko_r+0xec>
    2efe:	f104 0344 	add.w	r3, r4, #68	; 0x44
    2f02:	4299      	cmp	r1, r3
    2f04:	d002      	beq.n	2f0c <_fseeko_r+0xe8>
    2f06:	4628      	mov	r0, r5
    2f08:	f000 f8f4 	bl	30f4 <_free_r>
    2f0c:	2300      	movs	r3, #0
    2f0e:	6363      	str	r3, [r4, #52]	; 0x34
    2f10:	6923      	ldr	r3, [r4, #16]
    2f12:	2100      	movs	r1, #0
    2f14:	6023      	str	r3, [r4, #0]
    2f16:	89a3      	ldrh	r3, [r4, #12]
    2f18:	6061      	str	r1, [r4, #4]
    2f1a:	f423 6302 	bic.w	r3, r3, #2080	; 0x820
    2f1e:	81a3      	strh	r3, [r4, #12]
    2f20:	2208      	movs	r2, #8
    2f22:	f104 005c 	add.w	r0, r4, #92	; 0x5c
    2f26:	f000 f8dd 	bl	30e4 <memset>
    2f2a:	4648      	mov	r0, r9
    2f2c:	e8bd 83f8 	ldmia.w	sp!, {r3, r4, r5, r6, r7, r8, r9, pc}
    2f30:	00004e90 	.word	0x00004e90
    2f34:	00004eb0 	.word	0x00004eb0
    2f38:	00004ed0 	.word	0x00004ed0

00002f3c <_fwalk_reent>:
    2f3c:	e92d 43f8 	stmdb	sp!, {r3, r4, r5, r6, r7, r8, r9, lr}
    2f40:	4680      	mov	r8, r0
    2f42:	4689      	mov	r9, r1
    2f44:	f100 0448 	add.w	r4, r0, #72	; 0x48
    2f48:	2600      	movs	r6, #0
    2f4a:	b194      	cbz	r4, 2f72 <_fwalk_reent+0x36>
    2f4c:	68a5      	ldr	r5, [r4, #8]
    2f4e:	6867      	ldr	r7, [r4, #4]
    2f50:	3f01      	subs	r7, #1
    2f52:	d40c      	bmi.n	2f6e <_fwalk_reent+0x32>
    2f54:	89ab      	ldrh	r3, [r5, #12]
    2f56:	2b01      	cmp	r3, #1
    2f58:	d907      	bls.n	2f6a <_fwalk_reent+0x2e>
    2f5a:	f9b5 300e 	ldrsh.w	r3, [r5, #14]
    2f5e:	3301      	adds	r3, #1
    2f60:	d003      	beq.n	2f6a <_fwalk_reent+0x2e>
    2f62:	4629      	mov	r1, r5
    2f64:	4640      	mov	r0, r8
    2f66:	47c8      	blx	r9
    2f68:	4306      	orrs	r6, r0
    2f6a:	3568      	adds	r5, #104	; 0x68
    2f6c:	e7f0      	b.n	2f50 <_fwalk_reent+0x14>
    2f6e:	6824      	ldr	r4, [r4, #0]
    2f70:	e7eb      	b.n	2f4a <_fwalk_reent+0xe>
    2f72:	4630      	mov	r0, r6
    2f74:	e8bd 83f8 	ldmia.w	sp!, {r3, r4, r5, r6, r7, r8, r9, pc}

00002f78 <__libc_init_array>:
    2f78:	4b0e      	ldr	r3, [pc, #56]	; (2fb4 <__libc_init_array+0x3c>)
    2f7a:	b570      	push	{r4, r5, r6, lr}
    2f7c:	461e      	mov	r6, r3
    2f7e:	4c0e      	ldr	r4, [pc, #56]	; (2fb8 <__libc_init_array+0x40>)
    2f80:	2500      	movs	r5, #0
    2f82:	1ae4      	subs	r4, r4, r3
    2f84:	10a4      	asrs	r4, r4, #2
    2f86:	42a5      	cmp	r5, r4
    2f88:	d004      	beq.n	2f94 <__libc_init_array+0x1c>
    2f8a:	f856 3025 	ldr.w	r3, [r6, r5, lsl #2]
    2f8e:	4798      	blx	r3
    2f90:	3501      	adds	r5, #1
    2f92:	e7f8      	b.n	2f86 <__libc_init_array+0xe>
    2f94:	f001 fcea 	bl	496c <_init>
    2f98:	4b08      	ldr	r3, [pc, #32]	; (2fbc <__libc_init_array+0x44>)
    2f9a:	4c09      	ldr	r4, [pc, #36]	; (2fc0 <__libc_init_array+0x48>)
    2f9c:	461e      	mov	r6, r3
    2f9e:	1ae4      	subs	r4, r4, r3
    2fa0:	10a4      	asrs	r4, r4, #2
    2fa2:	2500      	movs	r5, #0
    2fa4:	42a5      	cmp	r5, r4
    2fa6:	d004      	beq.n	2fb2 <__libc_init_array+0x3a>
    2fa8:	f856 3025 	ldr.w	r3, [r6, r5, lsl #2]
    2fac:	4798      	blx	r3
    2fae:	3501      	adds	r5, #1
    2fb0:	e7f8      	b.n	2fa4 <__libc_init_array+0x2c>
    2fb2:	bd70      	pop	{r4, r5, r6, pc}
    2fb4:	1000013c 	.word	0x1000013c
    2fb8:	1000013c 	.word	0x1000013c
    2fbc:	1000013c 	.word	0x1000013c
    2fc0:	10000144 	.word	0x10000144

00002fc4 <__smakebuf_r>:
    2fc4:	b5f0      	push	{r4, r5, r6, r7, lr}
    2fc6:	898b      	ldrh	r3, [r1, #12]
    2fc8:	b091      	sub	sp, #68	; 0x44
    2fca:	079d      	lsls	r5, r3, #30
    2fcc:	4606      	mov	r6, r0
    2fce:	460c      	mov	r4, r1
    2fd0:	d425      	bmi.n	301e <__smakebuf_r+0x5a>
    2fd2:	f9b1 100e 	ldrsh.w	r1, [r1, #14]
    2fd6:	2900      	cmp	r1, #0
    2fd8:	da08      	bge.n	2fec <__smakebuf_r+0x28>
    2fda:	89a3      	ldrh	r3, [r4, #12]
    2fdc:	2500      	movs	r5, #0
    2fde:	f013 0f80 	tst.w	r3, #128	; 0x80
    2fe2:	bf14      	ite	ne
    2fe4:	2740      	movne	r7, #64	; 0x40
    2fe6:	f44f 6780 	moveq.w	r7, #1024	; 0x400
    2fea:	e00d      	b.n	3008 <__smakebuf_r+0x44>
    2fec:	aa01      	add	r2, sp, #4
    2fee:	f001 f94f 	bl	4290 <_fstat_r>
    2ff2:	2800      	cmp	r0, #0
    2ff4:	dbf1      	blt.n	2fda <__smakebuf_r+0x16>
    2ff6:	9d02      	ldr	r5, [sp, #8]
    2ff8:	f44f 6780 	mov.w	r7, #1024	; 0x400
    2ffc:	f405 4570 	and.w	r5, r5, #61440	; 0xf000
    3000:	f5a5 5100 	sub.w	r1, r5, #8192	; 0x2000
    3004:	424d      	negs	r5, r1
    3006:	414d      	adcs	r5, r1
    3008:	4639      	mov	r1, r7
    300a:	4630      	mov	r0, r6
    300c:	f000 f8b6 	bl	317c <_malloc_r>
    3010:	b960      	cbnz	r0, 302c <__smakebuf_r+0x68>
    3012:	89a3      	ldrh	r3, [r4, #12]
    3014:	059a      	lsls	r2, r3, #22
    3016:	d41d      	bmi.n	3054 <__smakebuf_r+0x90>
    3018:	f043 0302 	orr.w	r3, r3, #2
    301c:	81a3      	strh	r3, [r4, #12]
    301e:	f104 0347 	add.w	r3, r4, #71	; 0x47
    3022:	6023      	str	r3, [r4, #0]
    3024:	6123      	str	r3, [r4, #16]
    3026:	2301      	movs	r3, #1
    3028:	6163      	str	r3, [r4, #20]
    302a:	e013      	b.n	3054 <__smakebuf_r+0x90>
    302c:	4b0a      	ldr	r3, [pc, #40]	; (3058 <__smakebuf_r+0x94>)
    302e:	62b3      	str	r3, [r6, #40]	; 0x28
    3030:	89a3      	ldrh	r3, [r4, #12]
    3032:	6020      	str	r0, [r4, #0]
    3034:	f043 0380 	orr.w	r3, r3, #128	; 0x80
    3038:	81a3      	strh	r3, [r4, #12]
    303a:	6120      	str	r0, [r4, #16]
    303c:	6167      	str	r7, [r4, #20]
    303e:	b14d      	cbz	r5, 3054 <__smakebuf_r+0x90>
    3040:	f9b4 100e 	ldrsh.w	r1, [r4, #14]
    3044:	4630      	mov	r0, r6
    3046:	f001 f935 	bl	42b4 <_isatty_r>
    304a:	b118      	cbz	r0, 3054 <__smakebuf_r+0x90>
    304c:	89a3      	ldrh	r3, [r4, #12]
    304e:	f043 0301 	orr.w	r3, r3, #1
    3052:	81a3      	strh	r3, [r4, #12]
    3054:	b011      	add	sp, #68	; 0x44
    3056:	bdf0      	pop	{r4, r5, r6, r7, pc}
    3058:	00002c35 	.word	0x00002c35

0000305c <malloc>:
    305c:	4b02      	ldr	r3, [pc, #8]	; (3068 <malloc+0xc>)
    305e:	4601      	mov	r1, r0
    3060:	6818      	ldr	r0, [r3, #0]
    3062:	f000 b88b 	b.w	317c <_malloc_r>
    3066:	bf00      	nop
    3068:	10000134 	.word	0x10000134

0000306c <free>:
    306c:	4b02      	ldr	r3, [pc, #8]	; (3078 <free+0xc>)
    306e:	4601      	mov	r1, r0
    3070:	6818      	ldr	r0, [r3, #0]
    3072:	f000 b83f 	b.w	30f4 <_free_r>
    3076:	bf00      	nop
    3078:	10000134 	.word	0x10000134

0000307c <memchr>:
    307c:	b510      	push	{r4, lr}
    307e:	b2c9      	uxtb	r1, r1
    3080:	4402      	add	r2, r0
    3082:	4290      	cmp	r0, r2
    3084:	4603      	mov	r3, r0
    3086:	d005      	beq.n	3094 <memchr+0x18>
    3088:	781c      	ldrb	r4, [r3, #0]
    308a:	3001      	adds	r0, #1
    308c:	428c      	cmp	r4, r1
    308e:	d1f8      	bne.n	3082 <memchr+0x6>
    3090:	4618      	mov	r0, r3
    3092:	bd10      	pop	{r4, pc}
    3094:	2000      	movs	r0, #0
    3096:	bd10      	pop	{r4, pc}

00003098 <memcpy>:
    3098:	b510      	push	{r4, lr}
    309a:	1e43      	subs	r3, r0, #1
    309c:	440a      	add	r2, r1
    309e:	4291      	cmp	r1, r2
    30a0:	d004      	beq.n	30ac <memcpy+0x14>
    30a2:	f811 4b01 	ldrb.w	r4, [r1], #1
    30a6:	f803 4f01 	strb.w	r4, [r3, #1]!
    30aa:	e7f8      	b.n	309e <memcpy+0x6>
    30ac:	bd10      	pop	{r4, pc}

000030ae <memmove>:
    30ae:	4288      	cmp	r0, r1
    30b0:	b510      	push	{r4, lr}
    30b2:	eb01 0302 	add.w	r3, r1, r2
    30b6:	d801      	bhi.n	30bc <memmove+0xe>
    30b8:	1e42      	subs	r2, r0, #1
    30ba:	e00b      	b.n	30d4 <memmove+0x26>
    30bc:	4298      	cmp	r0, r3
    30be:	d2fb      	bcs.n	30b8 <memmove+0xa>
    30c0:	1881      	adds	r1, r0, r2
    30c2:	1ad2      	subs	r2, r2, r3
    30c4:	42d3      	cmn	r3, r2
    30c6:	d004      	beq.n	30d2 <memmove+0x24>
    30c8:	f813 4d01 	ldrb.w	r4, [r3, #-1]!
    30cc:	f801 4d01 	strb.w	r4, [r1, #-1]!
    30d0:	e7f8      	b.n	30c4 <memmove+0x16>
    30d2:	bd10      	pop	{r4, pc}
    30d4:	4299      	cmp	r1, r3
    30d6:	d004      	beq.n	30e2 <memmove+0x34>
    30d8:	f811 4b01 	ldrb.w	r4, [r1], #1
    30dc:	f802 4f01 	strb.w	r4, [r2, #1]!
    30e0:	e7f8      	b.n	30d4 <memmove+0x26>
    30e2:	bd10      	pop	{r4, pc}

000030e4 <memset>:
    30e4:	4603      	mov	r3, r0
    30e6:	4402      	add	r2, r0
    30e8:	4293      	cmp	r3, r2
    30ea:	d002      	beq.n	30f2 <memset+0xe>
    30ec:	f803 1b01 	strb.w	r1, [r3], #1
    30f0:	e7fa      	b.n	30e8 <memset+0x4>
    30f2:	4770      	bx	lr

000030f4 <_free_r>:
    30f4:	b530      	push	{r4, r5, lr}
    30f6:	2900      	cmp	r1, #0
    30f8:	d03c      	beq.n	3174 <_free_r+0x80>
    30fa:	f851 2c04 	ldr.w	r2, [r1, #-4]
    30fe:	1f0b      	subs	r3, r1, #4
    3100:	491d      	ldr	r1, [pc, #116]	; (3178 <_free_r+0x84>)
    3102:	2a00      	cmp	r2, #0
    3104:	bfb8      	it	lt
    3106:	189b      	addlt	r3, r3, r2
    3108:	680a      	ldr	r2, [r1, #0]
    310a:	460c      	mov	r4, r1
    310c:	b912      	cbnz	r2, 3114 <_free_r+0x20>
    310e:	605a      	str	r2, [r3, #4]
    3110:	600b      	str	r3, [r1, #0]
    3112:	bd30      	pop	{r4, r5, pc}
    3114:	429a      	cmp	r2, r3
    3116:	d90d      	bls.n	3134 <_free_r+0x40>
    3118:	6819      	ldr	r1, [r3, #0]
    311a:	1858      	adds	r0, r3, r1
    311c:	4282      	cmp	r2, r0
    311e:	bf01      	itttt	eq
    3120:	6810      	ldreq	r0, [r2, #0]
    3122:	6852      	ldreq	r2, [r2, #4]
    3124:	1809      	addeq	r1, r1, r0
    3126:	6019      	streq	r1, [r3, #0]
    3128:	605a      	str	r2, [r3, #4]
    312a:	6023      	str	r3, [r4, #0]
    312c:	bd30      	pop	{r4, r5, pc}
    312e:	4299      	cmp	r1, r3
    3130:	d803      	bhi.n	313a <_free_r+0x46>
    3132:	460a      	mov	r2, r1
    3134:	6851      	ldr	r1, [r2, #4]
    3136:	2900      	cmp	r1, #0
    3138:	d1f9      	bne.n	312e <_free_r+0x3a>
    313a:	6814      	ldr	r4, [r2, #0]
    313c:	1915      	adds	r5, r2, r4
    313e:	429d      	cmp	r5, r3
    3140:	d10a      	bne.n	3158 <_free_r+0x64>
    3142:	681b      	ldr	r3, [r3, #0]
    3144:	4423      	add	r3, r4
    3146:	18d0      	adds	r0, r2, r3
    3148:	4281      	cmp	r1, r0
    314a:	6013      	str	r3, [r2, #0]
    314c:	d112      	bne.n	3174 <_free_r+0x80>
    314e:	6808      	ldr	r0, [r1, #0]
    3150:	4403      	add	r3, r0
    3152:	6013      	str	r3, [r2, #0]
    3154:	684b      	ldr	r3, [r1, #4]
    3156:	e00c      	b.n	3172 <_free_r+0x7e>
    3158:	d902      	bls.n	3160 <_free_r+0x6c>
    315a:	230c      	movs	r3, #12
    315c:	6003      	str	r3, [r0, #0]
    315e:	bd30      	pop	{r4, r5, pc}
    3160:	6818      	ldr	r0, [r3, #0]
    3162:	181c      	adds	r4, r3, r0
    3164:	42a1      	cmp	r1, r4
    3166:	bf01      	itttt	eq
    3168:	680c      	ldreq	r4, [r1, #0]
    316a:	6849      	ldreq	r1, [r1, #4]
    316c:	1900      	addeq	r0, r0, r4
    316e:	6018      	streq	r0, [r3, #0]
    3170:	6059      	str	r1, [r3, #4]
    3172:	6053      	str	r3, [r2, #4]
    3174:	bd30      	pop	{r4, r5, pc}
    3176:	bf00      	nop
    3178:	10000430 	.word	0x10000430

0000317c <_malloc_r>:
    317c:	b570      	push	{r4, r5, r6, lr}
    317e:	1ccd      	adds	r5, r1, #3
    3180:	f025 0503 	bic.w	r5, r5, #3
    3184:	3508      	adds	r5, #8
    3186:	2d0c      	cmp	r5, #12
    3188:	bf38      	it	cc
    318a:	250c      	movcc	r5, #12
    318c:	2d00      	cmp	r5, #0
    318e:	4606      	mov	r6, r0
    3190:	da03      	bge.n	319a <_malloc_r+0x1e>
    3192:	230c      	movs	r3, #12
    3194:	6033      	str	r3, [r6, #0]
    3196:	2000      	movs	r0, #0
    3198:	bd70      	pop	{r4, r5, r6, pc}
    319a:	42a9      	cmp	r1, r5
    319c:	d8f9      	bhi.n	3192 <_malloc_r+0x16>
    319e:	4b1f      	ldr	r3, [pc, #124]	; (321c <_malloc_r+0xa0>)
    31a0:	681c      	ldr	r4, [r3, #0]
    31a2:	461a      	mov	r2, r3
    31a4:	4621      	mov	r1, r4
    31a6:	b1a1      	cbz	r1, 31d2 <_malloc_r+0x56>
    31a8:	680b      	ldr	r3, [r1, #0]
    31aa:	1b5b      	subs	r3, r3, r5
    31ac:	d40e      	bmi.n	31cc <_malloc_r+0x50>
    31ae:	2b0b      	cmp	r3, #11
    31b0:	d903      	bls.n	31ba <_malloc_r+0x3e>
    31b2:	600b      	str	r3, [r1, #0]
    31b4:	18cc      	adds	r4, r1, r3
    31b6:	50cd      	str	r5, [r1, r3]
    31b8:	e01e      	b.n	31f8 <_malloc_r+0x7c>
    31ba:	428c      	cmp	r4, r1
    31bc:	bf0b      	itete	eq
    31be:	6863      	ldreq	r3, [r4, #4]
    31c0:	684b      	ldrne	r3, [r1, #4]
    31c2:	6013      	streq	r3, [r2, #0]
    31c4:	6063      	strne	r3, [r4, #4]
    31c6:	bf18      	it	ne
    31c8:	460c      	movne	r4, r1
    31ca:	e015      	b.n	31f8 <_malloc_r+0x7c>
    31cc:	460c      	mov	r4, r1
    31ce:	6849      	ldr	r1, [r1, #4]
    31d0:	e7e9      	b.n	31a6 <_malloc_r+0x2a>
    31d2:	4c13      	ldr	r4, [pc, #76]	; (3220 <_malloc_r+0xa4>)
    31d4:	6823      	ldr	r3, [r4, #0]
    31d6:	b91b      	cbnz	r3, 31e0 <_malloc_r+0x64>
    31d8:	4630      	mov	r0, r6
    31da:	f000 fc77 	bl	3acc <_sbrk_r>
    31de:	6020      	str	r0, [r4, #0]
    31e0:	4629      	mov	r1, r5
    31e2:	4630      	mov	r0, r6
    31e4:	f000 fc72 	bl	3acc <_sbrk_r>
    31e8:	1c43      	adds	r3, r0, #1
    31ea:	d0d2      	beq.n	3192 <_malloc_r+0x16>
    31ec:	1cc4      	adds	r4, r0, #3
    31ee:	f024 0403 	bic.w	r4, r4, #3
    31f2:	42a0      	cmp	r0, r4
    31f4:	d10a      	bne.n	320c <_malloc_r+0x90>
    31f6:	6025      	str	r5, [r4, #0]
    31f8:	f104 000b 	add.w	r0, r4, #11
    31fc:	1d23      	adds	r3, r4, #4
    31fe:	f020 0007 	bic.w	r0, r0, #7
    3202:	1ac3      	subs	r3, r0, r3
    3204:	d009      	beq.n	321a <_malloc_r+0x9e>
    3206:	425a      	negs	r2, r3
    3208:	50e2      	str	r2, [r4, r3]
    320a:	bd70      	pop	{r4, r5, r6, pc}
    320c:	1a21      	subs	r1, r4, r0
    320e:	4630      	mov	r0, r6
    3210:	f000 fc5c 	bl	3acc <_sbrk_r>
    3214:	3001      	adds	r0, #1
    3216:	d1ee      	bne.n	31f6 <_malloc_r+0x7a>
    3218:	e7bb      	b.n	3192 <_malloc_r+0x16>
    321a:	bd70      	pop	{r4, r5, r6, pc}
    321c:	10000430 	.word	0x10000430
    3220:	1000042c 	.word	0x1000042c

00003224 <__sfputc_r>:
    3224:	6893      	ldr	r3, [r2, #8]
    3226:	b410      	push	{r4}
    3228:	3b01      	subs	r3, #1
    322a:	2b00      	cmp	r3, #0
    322c:	6093      	str	r3, [r2, #8]
    322e:	da08      	bge.n	3242 <__sfputc_r+0x1e>
    3230:	6994      	ldr	r4, [r2, #24]
    3232:	42a3      	cmp	r3, r4
    3234:	db02      	blt.n	323c <__sfputc_r+0x18>
    3236:	b2cb      	uxtb	r3, r1
    3238:	2b0a      	cmp	r3, #10
    323a:	d102      	bne.n	3242 <__sfputc_r+0x1e>
    323c:	bc10      	pop	{r4}
    323e:	f000 bf0d 	b.w	405c <__swbuf_r>
    3242:	6813      	ldr	r3, [r2, #0]
    3244:	1c58      	adds	r0, r3, #1
    3246:	6010      	str	r0, [r2, #0]
    3248:	7019      	strb	r1, [r3, #0]
    324a:	b2c8      	uxtb	r0, r1
    324c:	bc10      	pop	{r4}
    324e:	4770      	bx	lr

00003250 <__sfputs_r>:
    3250:	b5f8      	push	{r3, r4, r5, r6, r7, lr}
    3252:	4606      	mov	r6, r0
    3254:	460f      	mov	r7, r1
    3256:	4614      	mov	r4, r2
    3258:	18d5      	adds	r5, r2, r3
    325a:	42ac      	cmp	r4, r5
    325c:	d008      	beq.n	3270 <__sfputs_r+0x20>
    325e:	463a      	mov	r2, r7
    3260:	f814 1b01 	ldrb.w	r1, [r4], #1
    3264:	4630      	mov	r0, r6
    3266:	f7ff ffdd 	bl	3224 <__sfputc_r>
    326a:	1c43      	adds	r3, r0, #1
    326c:	d1f5      	bne.n	325a <__sfputs_r+0xa>
    326e:	e000      	b.n	3272 <__sfputs_r+0x22>
    3270:	2000      	movs	r0, #0
    3272:	bdf8      	pop	{r3, r4, r5, r6, r7, pc}

00003274 <_vfiprintf_r>:
    3274:	e92d 4ff0 	stmdb	sp!, {r4, r5, r6, r7, r8, r9, r10, r11, lr}
    3278:	b09d      	sub	sp, #116	; 0x74
    327a:	460c      	mov	r4, r1
    327c:	4617      	mov	r7, r2
    327e:	9303      	str	r3, [sp, #12]
    3280:	4606      	mov	r6, r0
    3282:	b118      	cbz	r0, 328c <_vfiprintf_r+0x18>
    3284:	6983      	ldr	r3, [r0, #24]
    3286:	b90b      	cbnz	r3, 328c <_vfiprintf_r+0x18>
    3288:	f7ff fd14 	bl	2cb4 <__sinit>
    328c:	4b7f      	ldr	r3, [pc, #508]	; (348c <_vfiprintf_r+0x218>)
    328e:	429c      	cmp	r4, r3
    3290:	d101      	bne.n	3296 <_vfiprintf_r+0x22>
    3292:	6874      	ldr	r4, [r6, #4]
    3294:	e008      	b.n	32a8 <_vfiprintf_r+0x34>
    3296:	4b7e      	ldr	r3, [pc, #504]	; (3490 <_vfiprintf_r+0x21c>)
    3298:	429c      	cmp	r4, r3
    329a:	d101      	bne.n	32a0 <_vfiprintf_r+0x2c>
    329c:	68b4      	ldr	r4, [r6, #8]
    329e:	e003      	b.n	32a8 <_vfiprintf_r+0x34>
    32a0:	4b7c      	ldr	r3, [pc, #496]	; (3494 <_vfiprintf_r+0x220>)
    32a2:	429c      	cmp	r4, r3
    32a4:	bf08      	it	eq
    32a6:	68f4      	ldreq	r4, [r6, #12]
    32a8:	89a3      	ldrh	r3, [r4, #12]
    32aa:	0718      	lsls	r0, r3, #28
    32ac:	d50c      	bpl.n	32c8 <_vfiprintf_r+0x54>
    32ae:	6923      	ldr	r3, [r4, #16]
    32b0:	b153      	cbz	r3, 32c8 <_vfiprintf_r+0x54>
    32b2:	2300      	movs	r3, #0
    32b4:	9309      	str	r3, [sp, #36]	; 0x24
    32b6:	2320      	movs	r3, #32
    32b8:	f88d 3029 	strb.w	r3, [sp, #41]	; 0x29
    32bc:	2330      	movs	r3, #48	; 0x30
    32be:	f88d 302a 	strb.w	r3, [sp, #42]	; 0x2a
    32c2:	f8df b1d4 	ldr.w	r11, [pc, #468]	; 3498 <_vfiprintf_r+0x224>
    32c6:	e044      	b.n	3352 <_vfiprintf_r+0xde>
    32c8:	4621      	mov	r1, r4
    32ca:	4630      	mov	r0, r6
    32cc:	f000 ff2c 	bl	4128 <__swsetup_r>
    32d0:	2800      	cmp	r0, #0
    32d2:	d0ee      	beq.n	32b2 <_vfiprintf_r+0x3e>
    32d4:	f04f 30ff 	mov.w	r0, #4294967295
    32d8:	e0d5      	b.n	3486 <_vfiprintf_r+0x212>
    32da:	9a03      	ldr	r2, [sp, #12]
    32dc:	1d11      	adds	r1, r2, #4
    32de:	6812      	ldr	r2, [r2, #0]
    32e0:	9103      	str	r1, [sp, #12]
    32e2:	2a00      	cmp	r2, #0
    32e4:	f280 808c 	bge.w	3400 <_vfiprintf_r+0x18c>
    32e8:	4252      	negs	r2, r2
    32ea:	f043 0002 	orr.w	r0, r3, #2
    32ee:	9207      	str	r2, [sp, #28]
    32f0:	9004      	str	r0, [sp, #16]
    32f2:	f898 3000 	ldrb.w	r3, [r8]
    32f6:	2b2e      	cmp	r3, #46	; 0x2e
    32f8:	f000 8084 	beq.w	3404 <_vfiprintf_r+0x190>
    32fc:	2203      	movs	r2, #3
    32fe:	f898 1000 	ldrb.w	r1, [r8]
    3302:	4865      	ldr	r0, [pc, #404]	; (3498 <_vfiprintf_r+0x224>)
    3304:	f7ff feba 	bl	307c <memchr>
    3308:	b148      	cbz	r0, 331e <_vfiprintf_r+0xaa>
    330a:	2340      	movs	r3, #64	; 0x40
    330c:	ebcb 0000 	rsb	r0, r11, r0
    3310:	fa03 f000 	lsl.w	r0, r3, r0
    3314:	9b04      	ldr	r3, [sp, #16]
    3316:	f108 0801 	add.w	r8, r8, #1
    331a:	4318      	orrs	r0, r3
    331c:	9004      	str	r0, [sp, #16]
    331e:	f898 1000 	ldrb.w	r1, [r8]
    3322:	2206      	movs	r2, #6
    3324:	485d      	ldr	r0, [pc, #372]	; (349c <_vfiprintf_r+0x228>)
    3326:	f108 0701 	add.w	r7, r8, #1
    332a:	f88d 1028 	strb.w	r1, [sp, #40]	; 0x28
    332e:	f7ff fea5 	bl	307c <memchr>
    3332:	2800      	cmp	r0, #0
    3334:	f000 8095 	beq.w	3462 <_vfiprintf_r+0x1ee>
    3338:	4b59      	ldr	r3, [pc, #356]	; (34a0 <_vfiprintf_r+0x22c>)
    333a:	2b00      	cmp	r3, #0
    333c:	f040 8088 	bne.w	3450 <_vfiprintf_r+0x1dc>
    3340:	9b03      	ldr	r3, [sp, #12]
    3342:	3307      	adds	r3, #7
    3344:	f023 0307 	bic.w	r3, r3, #7
    3348:	3308      	adds	r3, #8
    334a:	9303      	str	r3, [sp, #12]
    334c:	9b09      	ldr	r3, [sp, #36]	; 0x24
    334e:	4453      	add	r3, r10
    3350:	9309      	str	r3, [sp, #36]	; 0x24
    3352:	46b8      	mov	r8, r7
    3354:	4645      	mov	r5, r8
    3356:	f815 3b01 	ldrb.w	r3, [r5], #1
    335a:	b91b      	cbnz	r3, 3364 <_vfiprintf_r+0xf0>
    335c:	ebb8 0907 	subs.w	r9, r8, r7
    3360:	d00f      	beq.n	3382 <_vfiprintf_r+0x10e>
    3362:	e003      	b.n	336c <_vfiprintf_r+0xf8>
    3364:	2b25      	cmp	r3, #37	; 0x25
    3366:	d0f9      	beq.n	335c <_vfiprintf_r+0xe8>
    3368:	46a8      	mov	r8, r5
    336a:	e7f3      	b.n	3354 <_vfiprintf_r+0xe0>
    336c:	464b      	mov	r3, r9
    336e:	463a      	mov	r2, r7
    3370:	4621      	mov	r1, r4
    3372:	4630      	mov	r0, r6
    3374:	f7ff ff6c 	bl	3250 <__sfputs_r>
    3378:	3001      	adds	r0, #1
    337a:	d07f      	beq.n	347c <_vfiprintf_r+0x208>
    337c:	9b09      	ldr	r3, [sp, #36]	; 0x24
    337e:	444b      	add	r3, r9
    3380:	9309      	str	r3, [sp, #36]	; 0x24
    3382:	f898 3000 	ldrb.w	r3, [r8]
    3386:	2b00      	cmp	r3, #0
    3388:	d078      	beq.n	347c <_vfiprintf_r+0x208>
    338a:	2300      	movs	r3, #0
    338c:	f04f 32ff 	mov.w	r2, #4294967295
    3390:	9304      	str	r3, [sp, #16]
    3392:	9307      	str	r3, [sp, #28]
    3394:	9205      	str	r2, [sp, #20]
    3396:	9306      	str	r3, [sp, #24]
    3398:	f88d 3053 	strb.w	r3, [sp, #83]	; 0x53
    339c:	931a      	str	r3, [sp, #104]	; 0x68
    339e:	2701      	movs	r7, #1
    33a0:	2205      	movs	r2, #5
    33a2:	7829      	ldrb	r1, [r5, #0]
    33a4:	483f      	ldr	r0, [pc, #252]	; (34a4 <_vfiprintf_r+0x230>)
    33a6:	f7ff fe69 	bl	307c <memchr>
    33aa:	f105 0801 	add.w	r8, r5, #1
    33ae:	9b04      	ldr	r3, [sp, #16]
    33b0:	b138      	cbz	r0, 33c2 <_vfiprintf_r+0x14e>
    33b2:	4a3c      	ldr	r2, [pc, #240]	; (34a4 <_vfiprintf_r+0x230>)
    33b4:	4645      	mov	r5, r8
    33b6:	1a80      	subs	r0, r0, r2
    33b8:	fa07 f000 	lsl.w	r0, r7, r0
    33bc:	4318      	orrs	r0, r3
    33be:	9004      	str	r0, [sp, #16]
    33c0:	e7ee      	b.n	33a0 <_vfiprintf_r+0x12c>
    33c2:	06d9      	lsls	r1, r3, #27
    33c4:	bf44      	itt	mi
    33c6:	2220      	movmi	r2, #32
    33c8:	f88d 2053 	strbmi.w	r2, [sp, #83]	; 0x53
    33cc:	071a      	lsls	r2, r3, #28
    33ce:	bf44      	itt	mi
    33d0:	222b      	movmi	r2, #43	; 0x2b
    33d2:	f88d 2053 	strbmi.w	r2, [sp, #83]	; 0x53
    33d6:	782a      	ldrb	r2, [r5, #0]
    33d8:	2a2a      	cmp	r2, #42	; 0x2a
    33da:	f43f af7e 	beq.w	32da <_vfiprintf_r+0x66>
    33de:	9a07      	ldr	r2, [sp, #28]
    33e0:	2100      	movs	r1, #0
    33e2:	200a      	movs	r0, #10
    33e4:	46a8      	mov	r8, r5
    33e6:	f898 3000 	ldrb.w	r3, [r8]
    33ea:	3501      	adds	r5, #1
    33ec:	3b30      	subs	r3, #48	; 0x30
    33ee:	2b09      	cmp	r3, #9
    33f0:	d803      	bhi.n	33fa <_vfiprintf_r+0x186>
    33f2:	fb00 3202 	mla	r2, r0, r2, r3
    33f6:	2101      	movs	r1, #1
    33f8:	e7f4      	b.n	33e4 <_vfiprintf_r+0x170>
    33fa:	2900      	cmp	r1, #0
    33fc:	f43f af79 	beq.w	32f2 <_vfiprintf_r+0x7e>
    3400:	9207      	str	r2, [sp, #28]
    3402:	e776      	b.n	32f2 <_vfiprintf_r+0x7e>
    3404:	f898 3001 	ldrb.w	r3, [r8, #1]
    3408:	2b2a      	cmp	r3, #42	; 0x2a
    340a:	d10b      	bne.n	3424 <_vfiprintf_r+0x1b0>
    340c:	9b03      	ldr	r3, [sp, #12]
    340e:	f108 0802 	add.w	r8, r8, #2
    3412:	1d1a      	adds	r2, r3, #4
    3414:	681b      	ldr	r3, [r3, #0]
    3416:	9203      	str	r2, [sp, #12]
    3418:	2b00      	cmp	r3, #0
    341a:	bfb8      	it	lt
    341c:	f04f 33ff 	movlt.w	r3, #4294967295
    3420:	9305      	str	r3, [sp, #20]
    3422:	e76b      	b.n	32fc <_vfiprintf_r+0x88>
    3424:	2300      	movs	r3, #0
    3426:	4619      	mov	r1, r3
    3428:	9305      	str	r3, [sp, #20]
    342a:	f108 0001 	add.w	r0, r8, #1
    342e:	250a      	movs	r5, #10
    3430:	4680      	mov	r8, r0
    3432:	f898 2000 	ldrb.w	r2, [r8]
    3436:	3001      	adds	r0, #1
    3438:	3a30      	subs	r2, #48	; 0x30
    343a:	2a09      	cmp	r2, #9
    343c:	d803      	bhi.n	3446 <_vfiprintf_r+0x1d2>
    343e:	fb05 2101 	mla	r1, r5, r1, r2
    3442:	2301      	movs	r3, #1
    3444:	e7f4      	b.n	3430 <_vfiprintf_r+0x1bc>
    3446:	2b00      	cmp	r3, #0
    3448:	f43f af58 	beq.w	32fc <_vfiprintf_r+0x88>
    344c:	9105      	str	r1, [sp, #20]
    344e:	e755      	b.n	32fc <_vfiprintf_r+0x88>
    3450:	ab03      	add	r3, sp, #12
    3452:	9300      	str	r3, [sp, #0]
    3454:	4622      	mov	r2, r4
    3456:	4b14      	ldr	r3, [pc, #80]	; (34a8 <_vfiprintf_r+0x234>)
    3458:	a904      	add	r1, sp, #16
    345a:	4630      	mov	r0, r6
    345c:	f3af 8000 	nop.w
    3460:	e007      	b.n	3472 <_vfiprintf_r+0x1fe>
    3462:	ab03      	add	r3, sp, #12
    3464:	9300      	str	r3, [sp, #0]
    3466:	4622      	mov	r2, r4
    3468:	4b0f      	ldr	r3, [pc, #60]	; (34a8 <_vfiprintf_r+0x234>)
    346a:	a904      	add	r1, sp, #16
    346c:	4630      	mov	r0, r6
    346e:	f000 f89d 	bl	35ac <_printf_i>
    3472:	f1b0 3fff 	cmp.w	r0, #4294967295
    3476:	4682      	mov	r10, r0
    3478:	f47f af68 	bne.w	334c <_vfiprintf_r+0xd8>
    347c:	89a3      	ldrh	r3, [r4, #12]
    347e:	065b      	lsls	r3, r3, #25
    3480:	f53f af28 	bmi.w	32d4 <_vfiprintf_r+0x60>
    3484:	9809      	ldr	r0, [sp, #36]	; 0x24
    3486:	b01d      	add	sp, #116	; 0x74
    3488:	e8bd 8ff0 	ldmia.w	sp!, {r4, r5, r6, r7, r8, r9, r10, r11, pc}
    348c:	00004e90 	.word	0x00004e90
    3490:	00004eb0 	.word	0x00004eb0
    3494:	00004ed0 	.word	0x00004ed0
    3498:	00004efe 	.word	0x00004efe
    349c:	00004f02 	.word	0x00004f02
    34a0:	00000000 	.word	0x00000000
    34a4:	00004ef8 	.word	0x00004ef8
    34a8:	00003251 	.word	0x00003251

000034ac <vfiprintf>:
    34ac:	4613      	mov	r3, r2
    34ae:	460a      	mov	r2, r1
    34b0:	4601      	mov	r1, r0
    34b2:	4802      	ldr	r0, [pc, #8]	; (34bc <vfiprintf+0x10>)
    34b4:	6800      	ldr	r0, [r0, #0]
    34b6:	f7ff bedd 	b.w	3274 <_vfiprintf_r>
    34ba:	bf00      	nop
    34bc:	10000134 	.word	0x10000134

000034c0 <_printf_common>:
    34c0:	e92d 47f0 	stmdb	sp!, {r4, r5, r6, r7, r8, r9, r10, lr}
    34c4:	4691      	mov	r9, r2
    34c6:	461f      	mov	r7, r3
    34c8:	690a      	ldr	r2, [r1, #16]
    34ca:	688b      	ldr	r3, [r1, #8]
    34cc:	4606      	mov	r6, r0
    34ce:	4293      	cmp	r3, r2
    34d0:	bfb8      	it	lt
    34d2:	4613      	movlt	r3, r2
    34d4:	f8c9 3000 	str.w	r3, [r9]
    34d8:	f891 2043 	ldrb.w	r2, [r1, #67]	; 0x43
    34dc:	460c      	mov	r4, r1
    34de:	f8dd 8020 	ldr.w	r8, [sp, #32]
    34e2:	b112      	cbz	r2, 34ea <_printf_common+0x2a>
    34e4:	3301      	adds	r3, #1
    34e6:	f8c9 3000 	str.w	r3, [r9]
    34ea:	6823      	ldr	r3, [r4, #0]
    34ec:	0699      	lsls	r1, r3, #26
    34ee:	bf42      	ittt	mi
    34f0:	f8d9 3000 	ldrmi.w	r3, [r9]
    34f4:	3302      	addmi	r3, #2
    34f6:	f8c9 3000 	strmi.w	r3, [r9]
    34fa:	6825      	ldr	r5, [r4, #0]
    34fc:	f015 0506 	ands.w	r5, r5, #6
    3500:	d110      	bne.n	3524 <_printf_common+0x64>
    3502:	f104 0a19 	add.w	r10, r4, #25
    3506:	e007      	b.n	3518 <_printf_common+0x58>
    3508:	2301      	movs	r3, #1
    350a:	4652      	mov	r2, r10
    350c:	4639      	mov	r1, r7
    350e:	4630      	mov	r0, r6
    3510:	47c0      	blx	r8
    3512:	3001      	adds	r0, #1
    3514:	d01a      	beq.n	354c <_printf_common+0x8c>
    3516:	3501      	adds	r5, #1
    3518:	68e3      	ldr	r3, [r4, #12]
    351a:	f8d9 2000 	ldr.w	r2, [r9]
    351e:	1a9b      	subs	r3, r3, r2
    3520:	429d      	cmp	r5, r3
    3522:	dbf1      	blt.n	3508 <_printf_common+0x48>
    3524:	f894 3043 	ldrb.w	r3, [r4, #67]	; 0x43
    3528:	6822      	ldr	r2, [r4, #0]
    352a:	3300      	adds	r3, #0
    352c:	bf18      	it	ne
    352e:	2301      	movne	r3, #1
    3530:	0692      	lsls	r2, r2, #26
    3532:	d50f      	bpl.n	3554 <_printf_common+0x94>
    3534:	18e1      	adds	r1, r4, r3
    3536:	2030      	movs	r0, #48	; 0x30
    3538:	f881 0043 	strb.w	r0, [r1, #67]	; 0x43
    353c:	1c5a      	adds	r2, r3, #1
    353e:	f894 1045 	ldrb.w	r1, [r4, #69]	; 0x45
    3542:	4422      	add	r2, r4
    3544:	3302      	adds	r3, #2
    3546:	f882 1043 	strb.w	r1, [r2, #67]	; 0x43
    354a:	e003      	b.n	3554 <_printf_common+0x94>
    354c:	f04f 30ff 	mov.w	r0, #4294967295
    3550:	e8bd 87f0 	ldmia.w	sp!, {r4, r5, r6, r7, r8, r9, r10, pc}
    3554:	f104 0243 	add.w	r2, r4, #67	; 0x43
    3558:	4639      	mov	r1, r7
    355a:	4630      	mov	r0, r6
    355c:	47c0      	blx	r8
    355e:	3001      	adds	r0, #1
    3560:	d0f4      	beq.n	354c <_printf_common+0x8c>
    3562:	6822      	ldr	r2, [r4, #0]
    3564:	f8d9 5000 	ldr.w	r5, [r9]
    3568:	68e3      	ldr	r3, [r4, #12]
    356a:	f002 0206 	and.w	r2, r2, #6
    356e:	2a04      	cmp	r2, #4
    3570:	bf08      	it	eq
    3572:	1b5d      	subeq	r5, r3, r5
    3574:	6922      	ldr	r2, [r4, #16]
    3576:	68a3      	ldr	r3, [r4, #8]
    3578:	bf0c      	ite	eq
    357a:	ea25 75e5 	biceq.w	r5, r5, r5, asr #31
    357e:	2500      	movne	r5, #0
    3580:	4293      	cmp	r3, r2
    3582:	bfc4      	itt	gt
    3584:	1a9b      	subgt	r3, r3, r2
    3586:	18ed      	addgt	r5, r5, r3
    3588:	f04f 0900 	mov.w	r9, #0
    358c:	341a      	adds	r4, #26
    358e:	454d      	cmp	r5, r9
    3590:	d009      	beq.n	35a6 <_printf_common+0xe6>
    3592:	2301      	movs	r3, #1
    3594:	4622      	mov	r2, r4
    3596:	4639      	mov	r1, r7
    3598:	4630      	mov	r0, r6
    359a:	47c0      	blx	r8
    359c:	3001      	adds	r0, #1
    359e:	d0d5      	beq.n	354c <_printf_common+0x8c>
    35a0:	f109 0901 	add.w	r9, r9, #1
    35a4:	e7f3      	b.n	358e <_printf_common+0xce>
    35a6:	2000      	movs	r0, #0
    35a8:	e8bd 87f0 	ldmia.w	sp!, {r4, r5, r6, r7, r8, r9, r10, pc}

000035ac <_printf_i>:
    35ac:	e92d 43f0 	stmdb	sp!, {r4, r5, r6, r7, r8, r9, lr}
    35b0:	4617      	mov	r7, r2
    35b2:	7e0a      	ldrb	r2, [r1, #24]
    35b4:	b085      	sub	sp, #20
    35b6:	2a6e      	cmp	r2, #110	; 0x6e
    35b8:	4698      	mov	r8, r3
    35ba:	4606      	mov	r6, r0
    35bc:	460c      	mov	r4, r1
    35be:	9b0c      	ldr	r3, [sp, #48]	; 0x30
    35c0:	f101 0e43 	add.w	lr, r1, #67	; 0x43
    35c4:	f000 80ae 	beq.w	3724 <_printf_i+0x178>
    35c8:	d811      	bhi.n	35ee <_printf_i+0x42>
    35ca:	2a63      	cmp	r2, #99	; 0x63
    35cc:	d022      	beq.n	3614 <_printf_i+0x68>
    35ce:	d809      	bhi.n	35e4 <_printf_i+0x38>
    35d0:	2a00      	cmp	r2, #0
    35d2:	f000 80bb 	beq.w	374c <_printf_i+0x1a0>
    35d6:	2a58      	cmp	r2, #88	; 0x58
    35d8:	f040 80ca 	bne.w	3770 <_printf_i+0x1c4>
    35dc:	f881 2045 	strb.w	r2, [r1, #69]	; 0x45
    35e0:	4983      	ldr	r1, [pc, #524]	; (37f0 <_printf_i+0x244>)
    35e2:	e055      	b.n	3690 <_printf_i+0xe4>
    35e4:	2a64      	cmp	r2, #100	; 0x64
    35e6:	d01e      	beq.n	3626 <_printf_i+0x7a>
    35e8:	2a69      	cmp	r2, #105	; 0x69
    35ea:	d01c      	beq.n	3626 <_printf_i+0x7a>
    35ec:	e0c0      	b.n	3770 <_printf_i+0x1c4>
    35ee:	2a73      	cmp	r2, #115	; 0x73
    35f0:	f000 80b0 	beq.w	3754 <_printf_i+0x1a8>
    35f4:	d809      	bhi.n	360a <_printf_i+0x5e>
    35f6:	2a6f      	cmp	r2, #111	; 0x6f
    35f8:	d02e      	beq.n	3658 <_printf_i+0xac>
    35fa:	2a70      	cmp	r2, #112	; 0x70
    35fc:	f040 80b8 	bne.w	3770 <_printf_i+0x1c4>
    3600:	680a      	ldr	r2, [r1, #0]
    3602:	f042 0220 	orr.w	r2, r2, #32
    3606:	600a      	str	r2, [r1, #0]
    3608:	e03e      	b.n	3688 <_printf_i+0xdc>
    360a:	2a75      	cmp	r2, #117	; 0x75
    360c:	d024      	beq.n	3658 <_printf_i+0xac>
    360e:	2a78      	cmp	r2, #120	; 0x78
    3610:	d03a      	beq.n	3688 <_printf_i+0xdc>
    3612:	e0ad      	b.n	3770 <_printf_i+0x1c4>
    3614:	681a      	ldr	r2, [r3, #0]
    3616:	f101 0542 	add.w	r5, r1, #66	; 0x42
    361a:	1d11      	adds	r1, r2, #4
    361c:	6019      	str	r1, [r3, #0]
    361e:	6813      	ldr	r3, [r2, #0]
    3620:	f884 3042 	strb.w	r3, [r4, #66]	; 0x42
    3624:	e0a8      	b.n	3778 <_printf_i+0x1cc>
    3626:	6821      	ldr	r1, [r4, #0]
    3628:	681a      	ldr	r2, [r3, #0]
    362a:	f011 0f80 	tst.w	r1, #128	; 0x80
    362e:	d002      	beq.n	3636 <_printf_i+0x8a>
    3630:	1d11      	adds	r1, r2, #4
    3632:	6019      	str	r1, [r3, #0]
    3634:	e008      	b.n	3648 <_printf_i+0x9c>
    3636:	f011 0f40 	tst.w	r1, #64	; 0x40
    363a:	f102 0104 	add.w	r1, r2, #4
    363e:	6019      	str	r1, [r3, #0]
    3640:	d002      	beq.n	3648 <_printf_i+0x9c>
    3642:	f9b2 3000 	ldrsh.w	r3, [r2]
    3646:	e000      	b.n	364a <_printf_i+0x9e>
    3648:	6813      	ldr	r3, [r2, #0]
    364a:	2b00      	cmp	r3, #0
    364c:	da3c      	bge.n	36c8 <_printf_i+0x11c>
    364e:	222d      	movs	r2, #45	; 0x2d
    3650:	425b      	negs	r3, r3
    3652:	f884 2043 	strb.w	r2, [r4, #67]	; 0x43
    3656:	e037      	b.n	36c8 <_printf_i+0x11c>
    3658:	6821      	ldr	r1, [r4, #0]
    365a:	681a      	ldr	r2, [r3, #0]
    365c:	f011 0f80 	tst.w	r1, #128	; 0x80
    3660:	d002      	beq.n	3668 <_printf_i+0xbc>
    3662:	1d11      	adds	r1, r2, #4
    3664:	6019      	str	r1, [r3, #0]
    3666:	e007      	b.n	3678 <_printf_i+0xcc>
    3668:	f011 0f40 	tst.w	r1, #64	; 0x40
    366c:	f102 0104 	add.w	r1, r2, #4
    3670:	6019      	str	r1, [r3, #0]
    3672:	d001      	beq.n	3678 <_printf_i+0xcc>
    3674:	8813      	ldrh	r3, [r2, #0]
    3676:	e000      	b.n	367a <_printf_i+0xce>
    3678:	6813      	ldr	r3, [r2, #0]
    367a:	7e22      	ldrb	r2, [r4, #24]
    367c:	495c      	ldr	r1, [pc, #368]	; (37f0 <_printf_i+0x244>)
    367e:	2a6f      	cmp	r2, #111	; 0x6f
    3680:	bf14      	ite	ne
    3682:	220a      	movne	r2, #10
    3684:	2208      	moveq	r2, #8
    3686:	e01b      	b.n	36c0 <_printf_i+0x114>
    3688:	2278      	movs	r2, #120	; 0x78
    368a:	495a      	ldr	r1, [pc, #360]	; (37f4 <_printf_i+0x248>)
    368c:	f884 2045 	strb.w	r2, [r4, #69]	; 0x45
    3690:	6822      	ldr	r2, [r4, #0]
    3692:	6818      	ldr	r0, [r3, #0]
    3694:	f012 0f80 	tst.w	r2, #128	; 0x80
    3698:	f100 0504 	add.w	r5, r0, #4
    369c:	601d      	str	r5, [r3, #0]
    369e:	d103      	bne.n	36a8 <_printf_i+0xfc>
    36a0:	0655      	lsls	r5, r2, #25
    36a2:	d501      	bpl.n	36a8 <_printf_i+0xfc>
    36a4:	8803      	ldrh	r3, [r0, #0]
    36a6:	e000      	b.n	36aa <_printf_i+0xfe>
    36a8:	6803      	ldr	r3, [r0, #0]
    36aa:	07d0      	lsls	r0, r2, #31
    36ac:	bf44      	itt	mi
    36ae:	f042 0220 	orrmi.w	r2, r2, #32
    36b2:	6022      	strmi	r2, [r4, #0]
    36b4:	b91b      	cbnz	r3, 36be <_printf_i+0x112>
    36b6:	6822      	ldr	r2, [r4, #0]
    36b8:	f022 0220 	bic.w	r2, r2, #32
    36bc:	6022      	str	r2, [r4, #0]
    36be:	2210      	movs	r2, #16
    36c0:	2000      	movs	r0, #0
    36c2:	f884 0043 	strb.w	r0, [r4, #67]	; 0x43
    36c6:	e001      	b.n	36cc <_printf_i+0x120>
    36c8:	4949      	ldr	r1, [pc, #292]	; (37f0 <_printf_i+0x244>)
    36ca:	220a      	movs	r2, #10
    36cc:	6865      	ldr	r5, [r4, #4]
    36ce:	2d00      	cmp	r5, #0
    36d0:	60a5      	str	r5, [r4, #8]
    36d2:	db08      	blt.n	36e6 <_printf_i+0x13a>
    36d4:	6820      	ldr	r0, [r4, #0]
    36d6:	f020 0004 	bic.w	r0, r0, #4
    36da:	6020      	str	r0, [r4, #0]
    36dc:	b92b      	cbnz	r3, 36ea <_printf_i+0x13e>
    36de:	2d00      	cmp	r5, #0
    36e0:	d17d      	bne.n	37de <_printf_i+0x232>
    36e2:	4675      	mov	r5, lr
    36e4:	e00c      	b.n	3700 <_printf_i+0x154>
    36e6:	2b00      	cmp	r3, #0
    36e8:	d079      	beq.n	37de <_printf_i+0x232>
    36ea:	4675      	mov	r5, lr
    36ec:	fbb3 f0f2 	udiv	r0, r3, r2
    36f0:	fb02 3310 	mls	r3, r2, r0, r3
    36f4:	5ccb      	ldrb	r3, [r1, r3]
    36f6:	f805 3d01 	strb.w	r3, [r5, #-1]!
    36fa:	4603      	mov	r3, r0
    36fc:	2800      	cmp	r0, #0
    36fe:	d1f5      	bne.n	36ec <_printf_i+0x140>
    3700:	2a08      	cmp	r2, #8
    3702:	d10b      	bne.n	371c <_printf_i+0x170>
    3704:	6823      	ldr	r3, [r4, #0]
    3706:	07da      	lsls	r2, r3, #31
    3708:	d508      	bpl.n	371c <_printf_i+0x170>
    370a:	6923      	ldr	r3, [r4, #16]
    370c:	6862      	ldr	r2, [r4, #4]
    370e:	429a      	cmp	r2, r3
    3710:	bfde      	ittt	le
    3712:	2330      	movle	r3, #48	; 0x30
    3714:	f805 3c01 	strble.w	r3, [r5, #-1]
    3718:	f105 35ff 	addle.w	r5, r5, #4294967295
    371c:	ebc5 030e 	rsb	r3, r5, lr
    3720:	6123      	str	r3, [r4, #16]
    3722:	e02e      	b.n	3782 <_printf_i+0x1d6>
    3724:	6808      	ldr	r0, [r1, #0]
    3726:	681a      	ldr	r2, [r3, #0]
    3728:	f010 0f80 	tst.w	r0, #128	; 0x80
    372c:	6949      	ldr	r1, [r1, #20]
    372e:	d003      	beq.n	3738 <_printf_i+0x18c>
    3730:	1d10      	adds	r0, r2, #4
    3732:	6018      	str	r0, [r3, #0]
    3734:	6813      	ldr	r3, [r2, #0]
    3736:	e008      	b.n	374a <_printf_i+0x19e>
    3738:	f010 0f40 	tst.w	r0, #64	; 0x40
    373c:	f102 0004 	add.w	r0, r2, #4
    3740:	6018      	str	r0, [r3, #0]
    3742:	6813      	ldr	r3, [r2, #0]
    3744:	d001      	beq.n	374a <_printf_i+0x19e>
    3746:	8019      	strh	r1, [r3, #0]
    3748:	e000      	b.n	374c <_printf_i+0x1a0>
    374a:	6019      	str	r1, [r3, #0]
    374c:	2300      	movs	r3, #0
    374e:	6123      	str	r3, [r4, #16]
    3750:	4675      	mov	r5, lr
    3752:	e016      	b.n	3782 <_printf_i+0x1d6>
    3754:	681a      	ldr	r2, [r3, #0]
    3756:	1d11      	adds	r1, r2, #4
    3758:	6019      	str	r1, [r3, #0]
    375a:	6815      	ldr	r5, [r2, #0]
    375c:	2100      	movs	r1, #0
    375e:	6862      	ldr	r2, [r4, #4]
    3760:	4628      	mov	r0, r5
    3762:	f7ff fc8b 	bl	307c <memchr>
    3766:	b108      	cbz	r0, 376c <_printf_i+0x1c0>
    3768:	1b40      	subs	r0, r0, r5
    376a:	6060      	str	r0, [r4, #4]
    376c:	6863      	ldr	r3, [r4, #4]
    376e:	e004      	b.n	377a <_printf_i+0x1ce>
    3770:	f104 0542 	add.w	r5, r4, #66	; 0x42
    3774:	f884 2042 	strb.w	r2, [r4, #66]	; 0x42
    3778:	2301      	movs	r3, #1
    377a:	6123      	str	r3, [r4, #16]
    377c:	2300      	movs	r3, #0
    377e:	f884 3043 	strb.w	r3, [r4, #67]	; 0x43
    3782:	f8cd 8000 	str.w	r8, [sp]
    3786:	463b      	mov	r3, r7
    3788:	aa03      	add	r2, sp, #12
    378a:	4621      	mov	r1, r4
    378c:	4630      	mov	r0, r6
    378e:	f7ff fe97 	bl	34c0 <_printf_common>
    3792:	3001      	adds	r0, #1
    3794:	d102      	bne.n	379c <_printf_i+0x1f0>
    3796:	f04f 30ff 	mov.w	r0, #4294967295
    379a:	e026      	b.n	37ea <_printf_i+0x23e>
    379c:	6923      	ldr	r3, [r4, #16]
    379e:	462a      	mov	r2, r5
    37a0:	4639      	mov	r1, r7
    37a2:	4630      	mov	r0, r6
    37a4:	47c0      	blx	r8
    37a6:	3001      	adds	r0, #1
    37a8:	d0f5      	beq.n	3796 <_printf_i+0x1ea>
    37aa:	6823      	ldr	r3, [r4, #0]
    37ac:	079b      	lsls	r3, r3, #30
    37ae:	d510      	bpl.n	37d2 <_printf_i+0x226>
    37b0:	2500      	movs	r5, #0
    37b2:	f104 0919 	add.w	r9, r4, #25
    37b6:	e007      	b.n	37c8 <_printf_i+0x21c>
    37b8:	2301      	movs	r3, #1
    37ba:	464a      	mov	r2, r9
    37bc:	4639      	mov	r1, r7
    37be:	4630      	mov	r0, r6
    37c0:	47c0      	blx	r8
    37c2:	3001      	adds	r0, #1
    37c4:	d0e7      	beq.n	3796 <_printf_i+0x1ea>
    37c6:	3501      	adds	r5, #1
    37c8:	68e3      	ldr	r3, [r4, #12]
    37ca:	9a03      	ldr	r2, [sp, #12]
    37cc:	1a9b      	subs	r3, r3, r2
    37ce:	429d      	cmp	r5, r3
    37d0:	dbf2      	blt.n	37b8 <_printf_i+0x20c>
    37d2:	68e0      	ldr	r0, [r4, #12]
    37d4:	9b03      	ldr	r3, [sp, #12]
    37d6:	4298      	cmp	r0, r3
    37d8:	bfb8      	it	lt
    37da:	4618      	movlt	r0, r3
    37dc:	e005      	b.n	37ea <_printf_i+0x23e>
    37de:	780b      	ldrb	r3, [r1, #0]
    37e0:	f104 0542 	add.w	r5, r4, #66	; 0x42
    37e4:	f884 3042 	strb.w	r3, [r4, #66]	; 0x42
    37e8:	e78a      	b.n	3700 <_printf_i+0x154>
    37ea:	b005      	add	sp, #20
    37ec:	e8bd 83f0 	ldmia.w	sp!, {r4, r5, r6, r7, r8, r9, pc}
    37f0:	00004f09 	.word	0x00004f09
    37f4:	00004f1a 	.word	0x00004f1a

000037f8 <_scanf_chars>:
    37f8:	e92d 43f8 	stmdb	sp!, {r3, r4, r5, r6, r7, r8, r9, lr}
    37fc:	4615      	mov	r5, r2
    37fe:	688a      	ldr	r2, [r1, #8]
    3800:	4680      	mov	r8, r0
    3802:	460c      	mov	r4, r1
    3804:	b932      	cbnz	r2, 3814 <_scanf_chars+0x1c>
    3806:	698a      	ldr	r2, [r1, #24]
    3808:	2a00      	cmp	r2, #0
    380a:	bf0c      	ite	eq
    380c:	2201      	moveq	r2, #1
    380e:	f04f 32ff 	movne.w	r2, #4294967295
    3812:	608a      	str	r2, [r1, #8]
    3814:	6822      	ldr	r2, [r4, #0]
    3816:	f8df 90a8 	ldr.w	r9, [pc, #168]	; 38c0 <_scanf_chars+0xc8>
    381a:	06d1      	lsls	r1, r2, #27
    381c:	bf58      	it	pl
    381e:	681a      	ldrpl	r2, [r3, #0]
    3820:	f04f 0600 	mov.w	r6, #0
    3824:	bf5e      	ittt	pl
    3826:	1d11      	addpl	r1, r2, #4
    3828:	6019      	strpl	r1, [r3, #0]
    382a:	6817      	ldrpl	r7, [r2, #0]
    382c:	69a0      	ldr	r0, [r4, #24]
    382e:	b9f8      	cbnz	r0, 3870 <_scanf_chars+0x78>
    3830:	6823      	ldr	r3, [r4, #0]
    3832:	3601      	adds	r6, #1
    3834:	06da      	lsls	r2, r3, #27
    3836:	bf5e      	ittt	pl
    3838:	682b      	ldrpl	r3, [r5, #0]
    383a:	781b      	ldrbpl	r3, [r3, #0]
    383c:	703b      	strbpl	r3, [r7, #0]
    383e:	682a      	ldr	r2, [r5, #0]
    3840:	686b      	ldr	r3, [r5, #4]
    3842:	f102 0201 	add.w	r2, r2, #1
    3846:	602a      	str	r2, [r5, #0]
    3848:	68a2      	ldr	r2, [r4, #8]
    384a:	f103 33ff 	add.w	r3, r3, #4294967295
    384e:	f102 32ff 	add.w	r2, r2, #4294967295
    3852:	606b      	str	r3, [r5, #4]
    3854:	bf58      	it	pl
    3856:	3701      	addpl	r7, #1
    3858:	60a2      	str	r2, [r4, #8]
    385a:	b1e2      	cbz	r2, 3896 <_scanf_chars+0x9e>
    385c:	2b00      	cmp	r3, #0
    385e:	dce5      	bgt.n	382c <_scanf_chars+0x34>
    3860:	f8d4 3180 	ldr.w	r3, [r4, #384]	; 0x180
    3864:	4629      	mov	r1, r5
    3866:	4640      	mov	r0, r8
    3868:	4798      	blx	r3
    386a:	2800      	cmp	r0, #0
    386c:	d0de      	beq.n	382c <_scanf_chars+0x34>
    386e:	e012      	b.n	3896 <_scanf_chars+0x9e>
    3870:	2801      	cmp	r0, #1
    3872:	d106      	bne.n	3882 <_scanf_chars+0x8a>
    3874:	682b      	ldr	r3, [r5, #0]
    3876:	781a      	ldrb	r2, [r3, #0]
    3878:	6963      	ldr	r3, [r4, #20]
    387a:	5c9b      	ldrb	r3, [r3, r2]
    387c:	2b00      	cmp	r3, #0
    387e:	d1d7      	bne.n	3830 <_scanf_chars+0x38>
    3880:	e019      	b.n	38b6 <_scanf_chars+0xbe>
    3882:	2802      	cmp	r0, #2
    3884:	d107      	bne.n	3896 <_scanf_chars+0x9e>
    3886:	682b      	ldr	r3, [r5, #0]
    3888:	f8d9 2000 	ldr.w	r2, [r9]
    388c:	781b      	ldrb	r3, [r3, #0]
    388e:	4413      	add	r3, r2
    3890:	785b      	ldrb	r3, [r3, #1]
    3892:	071b      	lsls	r3, r3, #28
    3894:	d5cc      	bpl.n	3830 <_scanf_chars+0x38>
    3896:	6823      	ldr	r3, [r4, #0]
    3898:	f013 0310 	ands.w	r3, r3, #16
    389c:	d105      	bne.n	38aa <_scanf_chars+0xb2>
    389e:	68e2      	ldr	r2, [r4, #12]
    38a0:	3201      	adds	r2, #1
    38a2:	60e2      	str	r2, [r4, #12]
    38a4:	69a2      	ldr	r2, [r4, #24]
    38a6:	b102      	cbz	r2, 38aa <_scanf_chars+0xb2>
    38a8:	703b      	strb	r3, [r7, #0]
    38aa:	6923      	ldr	r3, [r4, #16]
    38ac:	2000      	movs	r0, #0
    38ae:	441e      	add	r6, r3
    38b0:	6126      	str	r6, [r4, #16]
    38b2:	e8bd 83f8 	ldmia.w	sp!, {r3, r4, r5, r6, r7, r8, r9, pc}
    38b6:	2e00      	cmp	r6, #0
    38b8:	d1ed      	bne.n	3896 <_scanf_chars+0x9e>
    38ba:	e8bd 83f8 	ldmia.w	sp!, {r3, r4, r5, r6, r7, r8, r9, pc}
    38be:	bf00      	nop
    38c0:	10000138 	.word	0x10000138

000038c4 <_scanf_i>:
    38c4:	e92d 4ff0 	stmdb	sp!, {r4, r5, r6, r7, r8, r9, r10, r11, lr}
    38c8:	460c      	mov	r4, r1
    38ca:	469a      	mov	r10, r3
    38cc:	4b72      	ldr	r3, [pc, #456]	; (3a98 <_scanf_i+0x1d4>)
    38ce:	b087      	sub	sp, #28
    38d0:	4683      	mov	r11, r0
    38d2:	4616      	mov	r6, r2
    38d4:	e893 0007 	ldmia.w	r3, {r0, r1, r2}
    38d8:	ab03      	add	r3, sp, #12
    38da:	68a7      	ldr	r7, [r4, #8]
    38dc:	e883 0007 	stmia.w	r3, {r0, r1, r2}
    38e0:	4b6e      	ldr	r3, [pc, #440]	; (3a9c <_scanf_i+0x1d8>)
    38e2:	69a1      	ldr	r1, [r4, #24]
    38e4:	4a6e      	ldr	r2, [pc, #440]	; (3aa0 <_scanf_i+0x1dc>)
    38e6:	f104 091c 	add.w	r9, r4, #28
    38ea:	2903      	cmp	r1, #3
    38ec:	bf18      	it	ne
    38ee:	461a      	movne	r2, r3
    38f0:	1e7b      	subs	r3, r7, #1
    38f2:	f5b3 7fae 	cmp.w	r3, #348	; 0x15c
    38f6:	bf84      	itt	hi
    38f8:	f240 135d 	movwhi	r3, #349	; 0x15d
    38fc:	60a3      	strhi	r3, [r4, #8]
    38fe:	6823      	ldr	r3, [r4, #0]
    3900:	bf88      	it	hi
    3902:	f46f 75ae 	mvnhi.w	r5, #348	; 0x15c
    3906:	f443 6350 	orr.w	r3, r3, #3328	; 0xd00
    390a:	6023      	str	r3, [r4, #0]
    390c:	464b      	mov	r3, r9
    390e:	9200      	str	r2, [sp, #0]
    3910:	bf8c      	ite	hi
    3912:	197f      	addhi	r7, r7, r5
    3914:	2700      	movls	r7, #0
    3916:	f04f 0800 	mov.w	r8, #0
    391a:	6831      	ldr	r1, [r6, #0]
    391c:	9301      	str	r3, [sp, #4]
    391e:	ab03      	add	r3, sp, #12
    3920:	f853 0028 	ldr.w	r0, [r3, r8, lsl #2]
    3924:	2202      	movs	r2, #2
    3926:	7809      	ldrb	r1, [r1, #0]
    3928:	f7ff fba8 	bl	307c <memchr>
    392c:	9b01      	ldr	r3, [sp, #4]
    392e:	2800      	cmp	r0, #0
    3930:	d033      	beq.n	399a <_scanf_i+0xd6>
    3932:	f1b8 0f01 	cmp.w	r8, #1
    3936:	d10b      	bne.n	3950 <_scanf_i+0x8c>
    3938:	6862      	ldr	r2, [r4, #4]
    393a:	b92a      	cbnz	r2, 3948 <_scanf_i+0x84>
    393c:	2208      	movs	r2, #8
    393e:	6062      	str	r2, [r4, #4]
    3940:	6822      	ldr	r2, [r4, #0]
    3942:	f442 7200 	orr.w	r2, r2, #512	; 0x200
    3946:	6022      	str	r2, [r4, #0]
    3948:	6822      	ldr	r2, [r4, #0]
    394a:	f422 62a0 	bic.w	r2, r2, #1280	; 0x500
    394e:	e00c      	b.n	396a <_scanf_i+0xa6>
    3950:	f1b8 0f02 	cmp.w	r8, #2
    3954:	d10a      	bne.n	396c <_scanf_i+0xa8>
    3956:	6822      	ldr	r2, [r4, #0]
    3958:	f402 61c0 	and.w	r1, r2, #1536	; 0x600
    395c:	f5b1 7f00 	cmp.w	r1, #512	; 0x200
    3960:	d11b      	bne.n	399a <_scanf_i+0xd6>
    3962:	2110      	movs	r1, #16
    3964:	6061      	str	r1, [r4, #4]
    3966:	f442 7280 	orr.w	r2, r2, #256	; 0x100
    396a:	6022      	str	r2, [r4, #0]
    396c:	68a2      	ldr	r2, [r4, #8]
    396e:	1e51      	subs	r1, r2, #1
    3970:	60a1      	str	r1, [r4, #8]
    3972:	b192      	cbz	r2, 399a <_scanf_i+0xd6>
    3974:	6832      	ldr	r2, [r6, #0]
    3976:	1c5d      	adds	r5, r3, #1
    3978:	1c51      	adds	r1, r2, #1
    397a:	6031      	str	r1, [r6, #0]
    397c:	7812      	ldrb	r2, [r2, #0]
    397e:	701a      	strb	r2, [r3, #0]
    3980:	6873      	ldr	r3, [r6, #4]
    3982:	3b01      	subs	r3, #1
    3984:	2b00      	cmp	r3, #0
    3986:	6073      	str	r3, [r6, #4]
    3988:	dc06      	bgt.n	3998 <_scanf_i+0xd4>
    398a:	f8d4 3180 	ldr.w	r3, [r4, #384]	; 0x180
    398e:	4631      	mov	r1, r6
    3990:	4658      	mov	r0, r11
    3992:	4798      	blx	r3
    3994:	2800      	cmp	r0, #0
    3996:	d141      	bne.n	3a1c <_scanf_i+0x158>
    3998:	462b      	mov	r3, r5
    399a:	f108 0801 	add.w	r8, r8, #1
    399e:	f1b8 0f03 	cmp.w	r8, #3
    39a2:	d1ba      	bne.n	391a <_scanf_i+0x56>
    39a4:	6862      	ldr	r2, [r4, #4]
    39a6:	b90a      	cbnz	r2, 39ac <_scanf_i+0xe8>
    39a8:	220a      	movs	r2, #10
    39aa:	6062      	str	r2, [r4, #4]
    39ac:	6862      	ldr	r2, [r4, #4]
    39ae:	493d      	ldr	r1, [pc, #244]	; (3aa4 <_scanf_i+0x1e0>)
    39b0:	6960      	ldr	r0, [r4, #20]
    39b2:	1a89      	subs	r1, r1, r2
    39b4:	9301      	str	r3, [sp, #4]
    39b6:	f000 f899 	bl	3aec <__sccl>
    39ba:	9b01      	ldr	r3, [sp, #4]
    39bc:	f04f 0800 	mov.w	r8, #0
    39c0:	461d      	mov	r5, r3
    39c2:	68a3      	ldr	r3, [r4, #8]
    39c4:	b363      	cbz	r3, 3a20 <_scanf_i+0x15c>
    39c6:	6831      	ldr	r1, [r6, #0]
    39c8:	6960      	ldr	r0, [r4, #20]
    39ca:	780a      	ldrb	r2, [r1, #0]
    39cc:	5c80      	ldrb	r0, [r0, r2]
    39ce:	b338      	cbz	r0, 3a20 <_scanf_i+0x15c>
    39d0:	2a30      	cmp	r2, #48	; 0x30
    39d2:	6822      	ldr	r2, [r4, #0]
    39d4:	d108      	bne.n	39e8 <_scanf_i+0x124>
    39d6:	0510      	lsls	r0, r2, #20
    39d8:	d506      	bpl.n	39e8 <_scanf_i+0x124>
    39da:	f108 0801 	add.w	r8, r8, #1
    39de:	b157      	cbz	r7, 39f6 <_scanf_i+0x132>
    39e0:	3301      	adds	r3, #1
    39e2:	3f01      	subs	r7, #1
    39e4:	60a3      	str	r3, [r4, #8]
    39e6:	e006      	b.n	39f6 <_scanf_i+0x132>
    39e8:	f422 6210 	bic.w	r2, r2, #2304	; 0x900
    39ec:	6022      	str	r2, [r4, #0]
    39ee:	780b      	ldrb	r3, [r1, #0]
    39f0:	3501      	adds	r5, #1
    39f2:	f805 3c01 	strb.w	r3, [r5, #-1]
    39f6:	6873      	ldr	r3, [r6, #4]
    39f8:	3b01      	subs	r3, #1
    39fa:	2b00      	cmp	r3, #0
    39fc:	6073      	str	r3, [r6, #4]
    39fe:	dd03      	ble.n	3a08 <_scanf_i+0x144>
    3a00:	6833      	ldr	r3, [r6, #0]
    3a02:	3301      	adds	r3, #1
    3a04:	6033      	str	r3, [r6, #0]
    3a06:	e005      	b.n	3a14 <_scanf_i+0x150>
    3a08:	f8d4 3180 	ldr.w	r3, [r4, #384]	; 0x180
    3a0c:	4631      	mov	r1, r6
    3a0e:	4658      	mov	r0, r11
    3a10:	4798      	blx	r3
    3a12:	b928      	cbnz	r0, 3a20 <_scanf_i+0x15c>
    3a14:	68a3      	ldr	r3, [r4, #8]
    3a16:	3b01      	subs	r3, #1
    3a18:	60a3      	str	r3, [r4, #8]
    3a1a:	e7d2      	b.n	39c2 <_scanf_i+0xfe>
    3a1c:	f04f 0800 	mov.w	r8, #0
    3a20:	6823      	ldr	r3, [r4, #0]
    3a22:	05d9      	lsls	r1, r3, #23
    3a24:	d50c      	bpl.n	3a40 <_scanf_i+0x17c>
    3a26:	454d      	cmp	r5, r9
    3a28:	d908      	bls.n	3a3c <_scanf_i+0x178>
    3a2a:	f815 1c01 	ldrb.w	r1, [r5, #-1]
    3a2e:	1e6f      	subs	r7, r5, #1
    3a30:	f8d4 317c 	ldr.w	r3, [r4, #380]	; 0x17c
    3a34:	4632      	mov	r2, r6
    3a36:	4658      	mov	r0, r11
    3a38:	4798      	blx	r3
    3a3a:	463d      	mov	r5, r7
    3a3c:	454d      	cmp	r5, r9
    3a3e:	d027      	beq.n	3a90 <_scanf_i+0x1cc>
    3a40:	6822      	ldr	r2, [r4, #0]
    3a42:	f012 0210 	ands.w	r2, r2, #16
    3a46:	d11b      	bne.n	3a80 <_scanf_i+0x1bc>
    3a48:	702a      	strb	r2, [r5, #0]
    3a4a:	6863      	ldr	r3, [r4, #4]
    3a4c:	4649      	mov	r1, r9
    3a4e:	4658      	mov	r0, r11
    3a50:	9e00      	ldr	r6, [sp, #0]
    3a52:	47b0      	blx	r6
    3a54:	6822      	ldr	r2, [r4, #0]
    3a56:	f8da 3000 	ldr.w	r3, [r10]
    3a5a:	f012 0f20 	tst.w	r2, #32
    3a5e:	d107      	bne.n	3a70 <_scanf_i+0x1ac>
    3a60:	07d2      	lsls	r2, r2, #31
    3a62:	d505      	bpl.n	3a70 <_scanf_i+0x1ac>
    3a64:	1d1a      	adds	r2, r3, #4
    3a66:	f8ca 2000 	str.w	r2, [r10]
    3a6a:	681b      	ldr	r3, [r3, #0]
    3a6c:	8018      	strh	r0, [r3, #0]
    3a6e:	e004      	b.n	3a7a <_scanf_i+0x1b6>
    3a70:	1d1a      	adds	r2, r3, #4
    3a72:	f8ca 2000 	str.w	r2, [r10]
    3a76:	681b      	ldr	r3, [r3, #0]
    3a78:	6018      	str	r0, [r3, #0]
    3a7a:	68e3      	ldr	r3, [r4, #12]
    3a7c:	3301      	adds	r3, #1
    3a7e:	60e3      	str	r3, [r4, #12]
    3a80:	6923      	ldr	r3, [r4, #16]
    3a82:	ebc9 0505 	rsb	r5, r9, r5
    3a86:	4445      	add	r5, r8
    3a88:	441d      	add	r5, r3
    3a8a:	6125      	str	r5, [r4, #16]
    3a8c:	2000      	movs	r0, #0
    3a8e:	e000      	b.n	3a92 <_scanf_i+0x1ce>
    3a90:	2001      	movs	r0, #1
    3a92:	b007      	add	sp, #28
    3a94:	e8bd 8ff0 	ldmia.w	sp!, {r4, r5, r6, r7, r8, r9, r10, r11, pc}
    3a98:	00004f2c 	.word	0x00004f2c
    3a9c:	00003eed 	.word	0x00003eed
    3aa0:	00003de1 	.word	0x00003de1
    3aa4:	00004f48 	.word	0x00004f48

00003aa8 <_open_r>:
    3aa8:	b538      	push	{r3, r4, r5, lr}
    3aaa:	4c07      	ldr	r4, [pc, #28]	; (3ac8 <_open_r+0x20>)
    3aac:	4605      	mov	r5, r0
    3aae:	4608      	mov	r0, r1
    3ab0:	4611      	mov	r1, r2
    3ab2:	2200      	movs	r2, #0
    3ab4:	6022      	str	r2, [r4, #0]
    3ab6:	461a      	mov	r2, r3
    3ab8:	f7fd ff8a 	bl	19d0 <_open>
    3abc:	1c43      	adds	r3, r0, #1
    3abe:	d102      	bne.n	3ac6 <_open_r+0x1e>
    3ac0:	6823      	ldr	r3, [r4, #0]
    3ac2:	b103      	cbz	r3, 3ac6 <_open_r+0x1e>
    3ac4:	602b      	str	r3, [r5, #0]
    3ac6:	bd38      	pop	{r3, r4, r5, pc}
    3ac8:	1000043c 	.word	0x1000043c

00003acc <_sbrk_r>:
    3acc:	b538      	push	{r3, r4, r5, lr}
    3ace:	4c06      	ldr	r4, [pc, #24]	; (3ae8 <_sbrk_r+0x1c>)
    3ad0:	2300      	movs	r3, #0
    3ad2:	4605      	mov	r5, r0
    3ad4:	4608      	mov	r0, r1
    3ad6:	6023      	str	r3, [r4, #0]
    3ad8:	f7fe f898 	bl	1c0c <_sbrk>
    3adc:	1c43      	adds	r3, r0, #1
    3ade:	d102      	bne.n	3ae6 <_sbrk_r+0x1a>
    3ae0:	6823      	ldr	r3, [r4, #0]
    3ae2:	b103      	cbz	r3, 3ae6 <_sbrk_r+0x1a>
    3ae4:	602b      	str	r3, [r5, #0]
    3ae6:	bd38      	pop	{r3, r4, r5, pc}
    3ae8:	1000043c 	.word	0x1000043c

00003aec <__sccl>:
    3aec:	b570      	push	{r4, r5, r6, lr}
    3aee:	780b      	ldrb	r3, [r1, #0]
    3af0:	1e44      	subs	r4, r0, #1
    3af2:	2b5e      	cmp	r3, #94	; 0x5e
    3af4:	bf13      	iteet	ne
    3af6:	1c4a      	addne	r2, r1, #1
    3af8:	1c8a      	addeq	r2, r1, #2
    3afa:	784b      	ldrbeq	r3, [r1, #1]
    3afc:	2100      	movne	r1, #0
    3afe:	bf08      	it	eq
    3b00:	2101      	moveq	r1, #1
    3b02:	f100 05ff 	add.w	r5, r0, #255	; 0xff
    3b06:	f804 1f01 	strb.w	r1, [r4, #1]!
    3b0a:	42ac      	cmp	r4, r5
    3b0c:	d1fb      	bne.n	3b06 <__sccl+0x1a>
    3b0e:	b90b      	cbnz	r3, 3b14 <__sccl+0x28>
    3b10:	1e50      	subs	r0, r2, #1
    3b12:	bd70      	pop	{r4, r5, r6, pc}
    3b14:	f081 0401 	eor.w	r4, r1, #1
